; ModuleID = 'frameworks/native/libs/ui/ColorSpace.cpp'
source_filename = "frameworks/native/libs/ui/ColorSpace.cpp"
target datalayout = "e-m:e-p:32:32-Fi8-i64:64-v128:64:128-a:0:32-n32-S64"
target triple = "thumbv7-unknown-linux-android"

%"class.android::details::TVec2" = type { %union.anon.14 }
%union.anon.14 = type { %struct.anon.15 }
%struct.anon.15 = type { float, float }
%"class.android::ColorSpace" = type { %"class.std::__1::basic_string", %"class.android::details::TMat33", %"class.android::details::TMat33", %"struct.android::ColorSpace::TransferParameters", %"class.std::__1::function", %"class.std::__1::function", %"class.std::__1::function", %"struct.std::__1::array", %"class.android::details::TVec2" }
%"class.std::__1::basic_string" = type { %"class.std::__1::__compressed_pair" }
%"class.std::__1::__compressed_pair" = type { %"struct.std::__1::__compressed_pair_elem" }
%"struct.std::__1::__compressed_pair_elem" = type { %"struct.std::__1::basic_string<char, std::__1::char_traits<char>, std::__1::allocator<char> >::__rep" }
%"struct.std::__1::basic_string<char, std::__1::char_traits<char>, std::__1::allocator<char> >::__rep" = type { %union.anon }
%union.anon = type { %"struct.std::__1::basic_string<char, std::__1::char_traits<char>, std::__1::allocator<char> >::__long" }
%"struct.std::__1::basic_string<char, std::__1::char_traits<char>, std::__1::allocator<char> >::__long" = type { i32, i32, i8* }
%"class.android::details::TMat33" = type { [3 x %"class.android::details::TVec3"] }
%"class.android::details::TVec3" = type { %union.anon.5 }
%union.anon.5 = type { %struct.anon }
%struct.anon = type { float, float, float }
%"struct.android::ColorSpace::TransferParameters" = type { float, float, float, float, float, float, float }
%"class.std::__1::function" = type { %"struct.std::__1::aligned_storage<12, 8>::type", %"class.std::__1::__function::__base"*, [4 x i8] }
%"struct.std::__1::aligned_storage<12, 8>::type" = type { [16 x i8] }
%"class.std::__1::__function::__base" = type { i32 (...)** }
%"struct.std::__1::array" = type { [3 x %"class.android::details::TVec2"] }
%"class.android::ColorSpaceConnector" = type { %"class.android::ColorSpace", %"class.android::ColorSpace", %"class.android::details::TMat33", [4 x i8] }
%"class.android::details::TVecProductOperators" = type { i8 }
%"class.android::details::TVecProductOperators.8" = type { i8 }
%"class.std::__1::__bind.41" = type { float (float, %"struct.android::ColorSpace::TransferParameters"*)*, %"class.std::__1::tuple.43" }
%"class.std::__1::tuple.43" = type { %"struct.std::__1::__tuple_impl.44" }
%"struct.std::__1::__tuple_impl.44" = type { %"class.std::__1::__tuple_leaf.45" }
%"class.std::__1::__tuple_leaf.45" = type { %"struct.android::ColorSpace::TransferParameters" }
%"class.std::__1::unique_ptr.50" = type { %"class.std::__1::__compressed_pair.51" }
%"class.std::__1::__compressed_pair.51" = type { %"struct.std::__1::__compressed_pair_elem.52", %"struct.std::__1::__compressed_pair_elem.58" }
%"struct.std::__1::__compressed_pair_elem.52" = type { %"class.std::__1::__function::__func"* }
%"class.std::__1::__function::__func" = type { %"class.std::__1::__function::__base", %"class.std::__1::__compressed_pair.53" }
%"class.std::__1::__compressed_pair.53" = type { %"struct.std::__1::__compressed_pair_elem.54" }
%"struct.std::__1::__compressed_pair_elem.54" = type { %"class.std::__1::__bind.41" }
%"struct.std::__1::__compressed_pair_elem.58" = type { %"class.std::__1::__allocator_destructor" }
%"class.std::__1::__allocator_destructor" = type { %"class.std::__1::allocator.48"*, i32 }
%"class.std::__1::allocator.48" = type { i8 }
%"class.std::__1::allocator.56" = type { i8 }
%"class.std::__1::tuple.59" = type { %"struct.std::__1::__tuple_impl.60" }
%"struct.std::__1::__tuple_impl.60" = type { %"class.std::__1::__tuple_leaf.61" }
%"class.std::__1::__tuple_leaf.61" = type { %"class.std::__1::__bind.41"* }
%"class.std::__1::tuple.62" = type { %"struct.std::__1::__tuple_impl.63" }
%"struct.std::__1::__tuple_impl.63" = type { %"class.std::__1::__tuple_leaf.64" }
%"class.std::__1::__tuple_leaf.64" = type { %"class.std::__1::allocator.56"* }
%"class.std::__1::tuple.154" = type { %"struct.std::__1::__tuple_impl.155" }
%"struct.std::__1::__tuple_impl.155" = type { %"class.std::__1::__tuple_leaf.156" }
%"class.std::__1::__tuple_leaf.156" = type { float (float)** }
%"class.std::__1::__bind.81" = type { float (float, float)*, %"class.std::__1::tuple.84" }
%"class.std::__1::tuple.84" = type { %"struct.std::__1::__tuple_impl.85" }
%"struct.std::__1::__tuple_impl.85" = type { %"class.std::__1::__tuple_leaf.18" }
%"class.std::__1::__tuple_leaf.18" = type { float }
%"class.std::__1::tuple.93" = type { %"struct.std::__1::__tuple_impl.94" }
%"struct.std::__1::__tuple_impl.94" = type { %"class.std::__1::__tuple_leaf.95" }
%"class.std::__1::__tuple_leaf.95" = type { %"class.std::__1::__bind.81"* }
%"class.std::__1::__bind.117" = type { float (float, float)*, %"class.std::__1::tuple.84" }
%"class.std::__1::tuple.124" = type { %"struct.std::__1::__tuple_impl.125" }
%"struct.std::__1::__tuple_impl.125" = type { %"class.std::__1::__tuple_leaf.126" }
%"class.std::__1::__tuple_leaf.126" = type { %"class.std::__1::__bind.117"* }
%"class.std::__1::__bind" = type { float (float, float, float, float, float, float)*, %"class.std::__1::tuple" }
%"class.std::__1::tuple" = type { %"struct.std::__1::__tuple_impl" }
%"struct.std::__1::__tuple_impl" = type { %"class.std::__1::__tuple_leaf.18", %"class.std::__1::__tuple_leaf.19", %"class.std::__1::__tuple_leaf.20", %"class.std::__1::__tuple_leaf.21", %"class.std::__1::__tuple_leaf.22" }
%"class.std::__1::__tuple_leaf.19" = type { float }
%"class.std::__1::__tuple_leaf.20" = type { float }
%"class.std::__1::__tuple_leaf.21" = type { float }
%"class.std::__1::__tuple_leaf.22" = type { float }
%"class.std::__1::unique_ptr.183" = type { %"class.std::__1::__compressed_pair.184" }
%"class.std::__1::__compressed_pair.184" = type { %"struct.std::__1::__compressed_pair_elem.185", %"struct.std::__1::__compressed_pair_elem.192" }
%"struct.std::__1::__compressed_pair_elem.185" = type { %"class.std::__1::__function::__func.186"* }
%"class.std::__1::__function::__func.186" = type { %"class.std::__1::__function::__base", %"class.std::__1::__compressed_pair.187" }
%"class.std::__1::__compressed_pair.187" = type { %"struct.std::__1::__compressed_pair_elem.188" }
%"struct.std::__1::__compressed_pair_elem.188" = type { %"class.std::__1::__bind" }
%"struct.std::__1::__compressed_pair_elem.192" = type { %"class.std::__1::__allocator_destructor.193" }
%"class.std::__1::__allocator_destructor.193" = type { %"class.std::__1::allocator.181"*, i32 }
%"class.std::__1::allocator.181" = type { i8 }
%"class.std::__1::allocator.190" = type { i8 }
%"class.std::__1::tuple.194" = type { %"struct.std::__1::__tuple_impl.195" }
%"struct.std::__1::__tuple_impl.195" = type { %"class.std::__1::__tuple_leaf.196" }
%"class.std::__1::__tuple_leaf.196" = type { %"class.std::__1::__bind"* }
%"class.std::__1::tuple.197" = type { %"struct.std::__1::__tuple_impl.198" }
%"struct.std::__1::__tuple_impl.198" = type { %"class.std::__1::__tuple_leaf.199" }
%"class.std::__1::__tuple_leaf.199" = type { %"class.std::__1::allocator.190"* }
%"class.std::__1::__bind.23" = type { float (float, float, float)*, %"class.std::__1::tuple.25" }
%"class.std::__1::tuple.25" = type { %"struct.std::__1::__tuple_impl.26" }
%"struct.std::__1::__tuple_impl.26" = type { %"class.std::__1::__tuple_leaf.18", %"class.std::__1::__tuple_leaf.19" }
%"class.std::__1::__compressed_pair.212" = type { %"struct.std::__1::__compressed_pair_elem.213" }
%"struct.std::__1::__compressed_pair_elem.213" = type { %"class.std::__1::__bind.23" }
%"class.std::__1::tuple.217" = type { %"struct.std::__1::__tuple_impl.218" }
%"struct.std::__1::__tuple_impl.218" = type { %"class.std::__1::__tuple_leaf.219" }
%"class.std::__1::__tuple_leaf.219" = type { %"class.std::__1::__bind.23"* }
%"struct.std::__1::basic_string<char, std::__1::char_traits<char>, std::__1::allocator<char> >::__short" = type { %union.anon.0, [11 x i8] }
%union.anon.0 = type { i8 }
%"class.std::__1::unique_ptr" = type { %"class.std::__1::__compressed_pair.27" }
%"class.std::__1::__compressed_pair.27" = type { %"struct.std::__1::__compressed_pair_elem.28" }
%"struct.std::__1::__compressed_pair_elem.28" = type { %"class.android::details::TVec3"* }
%"class.android::details::TVecAddOperators.9" = type { i8 }
%"class.android::details::TVec2.30" = type { %union.anon.37 }
%union.anon.37 = type { %struct.anon.38 }
%struct.anon.38 = type { i8, i8 }
%"class.std::__1::unique_ptr.68" = type { %"class.std::__1::__compressed_pair.51" }
%"class.std::__1::tuple.69" = type { %"struct.std::__1::__tuple_impl.70" }
%"struct.std::__1::__tuple_impl.70" = type { %"class.std::__1::__tuple_leaf.71" }
%"class.std::__1::__tuple_leaf.71" = type { %"class.std::__1::__bind.41"* }
%"class.std::__1::tuple.73" = type { %"struct.std::__1::__tuple_impl.74" }
%"struct.std::__1::__tuple_impl.74" = type { %"class.std::__1::__tuple_leaf.75" }
%"class.std::__1::__tuple_leaf.75" = type { %"class.std::__1::allocator.56"* }
%"class.std::__1::tuple.77" = type { %"struct.std::__1::__tuple_impl.78" }
%"struct.std::__1::__tuple_impl.78" = type { %"class.std::__1::__tuple_leaf.79" }
%"class.std::__1::__tuple_leaf.79" = type { float* }
%"class.std::__1::__function::__func.87" = type { %"class.std::__1::__function::__base", %"class.std::__1::__compressed_pair.88" }
%"class.std::__1::__compressed_pair.88" = type { %"struct.std::__1::__compressed_pair_elem.89" }
%"struct.std::__1::__compressed_pair_elem.89" = type { %"class.std::__1::__bind.81" }
%"class.std::__1::unique_ptr.100" = type { %"class.std::__1::__compressed_pair.101" }
%"class.std::__1::__compressed_pair.101" = type { %"struct.std::__1::__compressed_pair_elem.102", %"struct.std::__1::__compressed_pair_elem.103" }
%"struct.std::__1::__compressed_pair_elem.102" = type { %"class.std::__1::__function::__func.87"* }
%"struct.std::__1::__compressed_pair_elem.103" = type { %"class.std::__1::__allocator_destructor.104" }
%"class.std::__1::__allocator_destructor.104" = type { %"class.std::__1::allocator.98"*, i32 }
%"class.std::__1::allocator.98" = type { i8 }
%"class.std::__1::allocator.91" = type { i8 }
%"class.std::__1::tuple.105" = type { %"struct.std::__1::__tuple_impl.106" }
%"struct.std::__1::__tuple_impl.106" = type { %"class.std::__1::__tuple_leaf.107" }
%"class.std::__1::__tuple_leaf.107" = type { %"class.std::__1::__bind.81"* }
%"class.std::__1::tuple.108" = type { %"struct.std::__1::__tuple_impl.109" }
%"struct.std::__1::__tuple_impl.109" = type { %"class.std::__1::__tuple_leaf.110" }
%"class.std::__1::__tuple_leaf.110" = type { %"class.std::__1::allocator.91"* }
%"class.std::__1::tuple.113" = type { %"struct.std::__1::__tuple_impl.114" }
%"struct.std::__1::__tuple_impl.114" = type { %"class.std::__1::__tuple_leaf.115" }
%"class.std::__1::__tuple_leaf.115" = type { %"class.std::__1::allocator.91"* }
%"class.std::__1::__function::__func.118" = type { %"class.std::__1::__function::__base", %"class.std::__1::__compressed_pair.119" }
%"class.std::__1::__compressed_pair.119" = type { %"struct.std::__1::__compressed_pair_elem.120" }
%"struct.std::__1::__compressed_pair_elem.120" = type { %"class.std::__1::__bind.117" }
%"class.std::__1::unique_ptr.130" = type { %"class.std::__1::__compressed_pair.131" }
%"class.std::__1::__compressed_pair.131" = type { %"struct.std::__1::__compressed_pair_elem.132", %"struct.std::__1::__compressed_pair_elem.133" }
%"struct.std::__1::__compressed_pair_elem.132" = type { %"class.std::__1::__function::__func.118"* }
%"struct.std::__1::__compressed_pair_elem.133" = type { %"class.std::__1::__allocator_destructor.134" }
%"class.std::__1::__allocator_destructor.134" = type { %"class.std::__1::allocator.128"*, i32 }
%"class.std::__1::allocator.128" = type { i8 }
%"class.std::__1::allocator.122" = type { i8 }
%"class.std::__1::tuple.135" = type { %"struct.std::__1::__tuple_impl.136" }
%"struct.std::__1::__tuple_impl.136" = type { %"class.std::__1::__tuple_leaf.137" }
%"class.std::__1::__tuple_leaf.137" = type { %"class.std::__1::__bind.117"* }
%"class.std::__1::tuple.138" = type { %"struct.std::__1::__tuple_impl.139" }
%"struct.std::__1::__tuple_impl.139" = type { %"class.std::__1::__tuple_leaf.140" }
%"class.std::__1::__tuple_leaf.140" = type { %"class.std::__1::allocator.122"* }
%"class.std::__1::tuple.143" = type { %"struct.std::__1::__tuple_impl.144" }
%"struct.std::__1::__tuple_impl.144" = type { %"class.std::__1::__tuple_leaf.145" }
%"class.std::__1::__tuple_leaf.145" = type { %"class.std::__1::allocator.122"* }
%"class.std::__1::__function::__func.148" = type { %"class.std::__1::__function::__base", %"class.std::__1::__compressed_pair.149" }
%"class.std::__1::__compressed_pair.149" = type { %"struct.std::__1::__compressed_pair_elem.150" }
%"struct.std::__1::__compressed_pair_elem.150" = type { float (float)* }
%"class.std::__1::unique_ptr.160" = type { %"class.std::__1::__compressed_pair.161" }
%"class.std::__1::__compressed_pair.161" = type { %"struct.std::__1::__compressed_pair_elem.162", %"struct.std::__1::__compressed_pair_elem.163" }
%"struct.std::__1::__compressed_pair_elem.162" = type { %"class.std::__1::__function::__func.148"* }
%"struct.std::__1::__compressed_pair_elem.163" = type { %"class.std::__1::__allocator_destructor.164" }
%"class.std::__1::__allocator_destructor.164" = type { %"class.std::__1::allocator.158"*, i32 }
%"class.std::__1::allocator.158" = type { i8 }
%"class.std::__1::allocator.152" = type { i8 }
%"class.std::__1::tuple.165" = type { %"struct.std::__1::__tuple_impl.166" }
%"struct.std::__1::__tuple_impl.166" = type { %"class.std::__1::__tuple_leaf.167" }
%"class.std::__1::__tuple_leaf.167" = type { float (float)** }
%"class.std::__1::tuple.168" = type { %"struct.std::__1::__tuple_impl.169" }
%"struct.std::__1::__tuple_impl.169" = type { %"class.std::__1::__tuple_leaf.170" }
%"class.std::__1::__tuple_leaf.170" = type { %"class.std::__1::allocator.152"* }
%"class.std::__1::tuple.173" = type { %"struct.std::__1::__tuple_impl.174" }
%"struct.std::__1::__tuple_impl.174" = type { %"class.std::__1::__tuple_leaf.175" }
%"class.std::__1::__tuple_leaf.175" = type { %"class.std::__1::allocator.152"* }
%"class.std::__1::unique_ptr.202" = type { %"class.std::__1::__compressed_pair.184" }
%"class.std::__1::tuple.203" = type { %"struct.std::__1::__tuple_impl.204" }
%"struct.std::__1::__tuple_impl.204" = type { %"class.std::__1::__tuple_leaf.205" }
%"class.std::__1::__tuple_leaf.205" = type { %"class.std::__1::__bind"* }
%"class.std::__1::tuple.207" = type { %"struct.std::__1::__tuple_impl.208" }
%"struct.std::__1::__tuple_impl.208" = type { %"class.std::__1::__tuple_leaf.209" }
%"class.std::__1::__tuple_leaf.209" = type { %"class.std::__1::allocator.190"* }
%"class.std::__1::__function::__func.211" = type { %"class.std::__1::__function::__base", %"class.std::__1::__compressed_pair.212" }
%"class.std::__1::unique_ptr.223" = type { %"class.std::__1::__compressed_pair.224" }
%"class.std::__1::__compressed_pair.224" = type { %"struct.std::__1::__compressed_pair_elem.225", %"struct.std::__1::__compressed_pair_elem.226" }
%"struct.std::__1::__compressed_pair_elem.225" = type { %"class.std::__1::__function::__func.211"* }
%"struct.std::__1::__compressed_pair_elem.226" = type { %"class.std::__1::__allocator_destructor.227" }
%"class.std::__1::__allocator_destructor.227" = type { %"class.std::__1::allocator.221"*, i32 }
%"class.std::__1::allocator.221" = type { i8 }
%"class.std::__1::allocator.215" = type { i8 }
%"class.std::__1::tuple.228" = type { %"struct.std::__1::__tuple_impl.229" }
%"struct.std::__1::__tuple_impl.229" = type { %"class.std::__1::__tuple_leaf.230" }
%"class.std::__1::__tuple_leaf.230" = type { %"class.std::__1::__bind.23"* }
%"class.std::__1::tuple.231" = type { %"struct.std::__1::__tuple_impl.232" }
%"struct.std::__1::__tuple_impl.232" = type { %"class.std::__1::__tuple_leaf.233" }
%"class.std::__1::__tuple_leaf.233" = type { %"class.std::__1::allocator.215"* }
%"class.std::__1::tuple.236" = type { %"struct.std::__1::__tuple_impl.237" }
%"struct.std::__1::__tuple_impl.237" = type { %"class.std::__1::__tuple_leaf.238" }
%"class.std::__1::__tuple_leaf.238" = type { %"class.std::__1::allocator.215"* }

$_ZN7android10ColorSpace14linearResponseEf = comdat any

$_ZNK7android19ColorSpaceConnector9transformERKNS_7details5TVec3IfEE = comdat any

$_ZN7android19ColorSpaceConnectorD2Ev = comdat any

$_ZNSt3__110__function6__funcINS_6__bindIRFffRKN7android10ColorSpace18TransferParametersEEJRKNS_12placeholders4__phILi1EEES7_EEENS_9allocatorISF_EEFffEED0Ev = comdat any

$_ZNKSt3__110__function6__funcINS_6__bindIRFffRKN7android10ColorSpace18TransferParametersEEJRKNS_12placeholders4__phILi1EEES7_EEENS_9allocatorISF_EEFffEE7__cloneEv = comdat any

$_ZNKSt3__110__function6__funcINS_6__bindIRFffRKN7android10ColorSpace18TransferParametersEEJRKNS_12placeholders4__phILi1EEES7_EEENS_9allocatorISF_EEFffEE7__cloneEPNS0_6__baseISI_EE = comdat any

$_ZNSt3__110__function6__funcINS_6__bindIRFffRKN7android10ColorSpace18TransferParametersEEJRKNS_12placeholders4__phILi1EEES7_EEENS_9allocatorISF_EEFffEE7destroyEv = comdat any

$_ZNSt3__110__function6__funcINS_6__bindIRFffRKN7android10ColorSpace18TransferParametersEEJRKNS_12placeholders4__phILi1EEES7_EEENS_9allocatorISF_EEFffEE18destroy_deallocateEv = comdat any

$_ZNSt3__110__function6__funcINS_6__bindIRFffRKN7android10ColorSpace18TransferParametersEEJRKNS_12placeholders4__phILi1EEES7_EEENS_9allocatorISF_EEFffEEclEOf = comdat any

$_ZNSt3__110__function6__funcINS_6__bindIRFfffEJRKNS_12placeholders4__phILi1EEEfEEENS_9allocatorISA_EEFffEED0Ev = comdat any

$_ZNKSt3__110__function6__funcINS_6__bindIRFfffEJRKNS_12placeholders4__phILi1EEEfEEENS_9allocatorISA_EEFffEE7__cloneEv = comdat any

$_ZNKSt3__110__function6__funcINS_6__bindIRFfffEJRKNS_12placeholders4__phILi1EEEfEEENS_9allocatorISA_EEFffEE7__cloneEPNS0_6__baseISD_EE = comdat any

$_ZNSt3__110__function6__funcINS_6__bindIRFfffEJRKNS_12placeholders4__phILi1EEEfEEENS_9allocatorISA_EEFffEE7destroyEv = comdat any

$_ZNSt3__110__function6__funcINS_6__bindIRFfffEJRKNS_12placeholders4__phILi1EEEfEEENS_9allocatorISA_EEFffEE18destroy_deallocateEv = comdat any

$_ZNSt3__110__function6__funcINS_6__bindIRFfffEJRKNS_12placeholders4__phILi1EEEfEEENS_9allocatorISA_EEFffEEclEOf = comdat any

$_ZNSt3__110__function6__funcINS_6__bindIRFfffEJRKNS_12placeholders4__phILi1EEERfEEENS_9allocatorISB_EEFffEED0Ev = comdat any

$_ZNKSt3__110__function6__funcINS_6__bindIRFfffEJRKNS_12placeholders4__phILi1EEERfEEENS_9allocatorISB_EEFffEE7__cloneEv = comdat any

$_ZNKSt3__110__function6__funcINS_6__bindIRFfffEJRKNS_12placeholders4__phILi1EEERfEEENS_9allocatorISB_EEFffEE7__cloneEPNS0_6__baseISE_EE = comdat any

$_ZNSt3__110__function6__funcINS_6__bindIRFfffEJRKNS_12placeholders4__phILi1EEERfEEENS_9allocatorISB_EEFffEE7destroyEv = comdat any

$_ZNSt3__110__function6__funcINS_6__bindIRFfffEJRKNS_12placeholders4__phILi1EEERfEEENS_9allocatorISB_EEFffEE18destroy_deallocateEv = comdat any

$_ZNSt3__110__function6__funcINS_6__bindIRFfffEJRKNS_12placeholders4__phILi1EEERfEEENS_9allocatorISB_EEFffEEclEOf = comdat any

$_ZNSt3__110__function6__funcIPFffENS_9allocatorIS3_EES2_ED0Ev = comdat any

$_ZNKSt3__110__function6__funcIPFffENS_9allocatorIS3_EES2_E7__cloneEv = comdat any

$_ZNKSt3__110__function6__funcIPFffENS_9allocatorIS3_EES2_E7__cloneEPNS0_6__baseIS2_EE = comdat any

$_ZNSt3__110__function6__funcIPFffENS_9allocatorIS3_EES2_E7destroyEv = comdat any

$_ZNSt3__110__function6__funcIPFffENS_9allocatorIS3_EES2_E18destroy_deallocateEv = comdat any

$_ZNSt3__110__function6__funcIPFffENS_9allocatorIS3_EES2_EclEOf = comdat any

$_ZNSt3__110__function6__funcINS_6__bindIRFfffffffEJRKNS_12placeholders4__phILi1EEEfffffEEENS_9allocatorISA_EEFffEED0Ev = comdat any

$_ZNKSt3__110__function6__funcINS_6__bindIRFfffffffEJRKNS_12placeholders4__phILi1EEEfffffEEENS_9allocatorISA_EEFffEE7__cloneEv = comdat any

$_ZNKSt3__110__function6__funcINS_6__bindIRFfffffffEJRKNS_12placeholders4__phILi1EEEfffffEEENS_9allocatorISA_EEFffEE7__cloneEPNS0_6__baseISD_EE = comdat any

$_ZNSt3__110__function6__funcINS_6__bindIRFfffffffEJRKNS_12placeholders4__phILi1EEEfffffEEENS_9allocatorISA_EEFffEE7destroyEv = comdat any

$_ZNSt3__110__function6__funcINS_6__bindIRFfffffffEJRKNS_12placeholders4__phILi1EEEfffffEEENS_9allocatorISA_EEFffEE18destroy_deallocateEv = comdat any

$_ZNSt3__110__function6__funcINS_6__bindIRFfffffffEJRKNS_12placeholders4__phILi1EEEfffffEEENS_9allocatorISA_EEFffEEclEOf = comdat any

$_ZNSt3__110__function6__baseIFffEED2Ev = comdat any

$_ZNSt3__110__function6__funcINS_6__bindIRFffffEJRKNS_12placeholders4__phILi1EEEffEEENS_9allocatorISA_EEFffEED0Ev = comdat any

$_ZNKSt3__110__function6__funcINS_6__bindIRFffffEJRKNS_12placeholders4__phILi1EEEffEEENS_9allocatorISA_EEFffEE7__cloneEv = comdat any

$_ZNKSt3__110__function6__funcINS_6__bindIRFffffEJRKNS_12placeholders4__phILi1EEEffEEENS_9allocatorISA_EEFffEE7__cloneEPNS0_6__baseISD_EE = comdat any

$_ZNSt3__110__function6__funcINS_6__bindIRFffffEJRKNS_12placeholders4__phILi1EEEffEEENS_9allocatorISA_EEFffEE7destroyEv = comdat any

$_ZNSt3__110__function6__funcINS_6__bindIRFffffEJRKNS_12placeholders4__phILi1EEEffEEENS_9allocatorISA_EEFffEE18destroy_deallocateEv = comdat any

$_ZNSt3__110__function6__funcINS_6__bindIRFffffEJRKNS_12placeholders4__phILi1EEEffEEENS_9allocatorISA_EEFffEEclEOf = comdat any

$_ZTVNSt3__110__function6__funcINS_6__bindIRFffRKN7android10ColorSpace18TransferParametersEEJRKNS_12placeholders4__phILi1EEES7_EEENS_9allocatorISF_EEFffEEE = comdat any

$_ZTVNSt3__110__function6__funcINS_6__bindIRFfffEJRKNS_12placeholders4__phILi1EEEfEEENS_9allocatorISA_EEFffEEE = comdat any

$_ZTVNSt3__110__function6__funcINS_6__bindIRFfffEJRKNS_12placeholders4__phILi1EEERfEEENS_9allocatorISB_EEFffEEE = comdat any

$_ZTVNSt3__110__function6__funcIPFffENS_9allocatorIS3_EES2_EE = comdat any

$_ZTVNSt3__110__function6__funcINS_6__bindIRFfffffffEJRKNS_12placeholders4__phILi1EEEfffffEEENS_9allocatorISA_EEFffEEE = comdat any

$_ZTVNSt3__110__function6__funcINS_6__bindIRFffffEJRKNS_12placeholders4__phILi1EEEffEEENS_9allocatorISA_EEFffEEE = comdat any

@.str = private unnamed_addr constant [18 x i8] c"sRGB IEC61966-2.1\00", align 1
@.str.1 = private unnamed_addr constant [27 x i8] c"sRGB IEC61966-2.1 (Linear)\00", align 1
@.str.3 = private unnamed_addr constant [28 x i8] c"scRGB-nl IEC 61966-2-2:2003\00", align 1
@.str.5 = private unnamed_addr constant [25 x i8] c"scRGB IEC 61966-2-2:2003\00", align 1
@.str.7 = private unnamed_addr constant [12 x i8] c"NTSC (1953)\00", align 1
@constinit.8 = private unnamed_addr constant [3 x %"class.android::details::TVec2"] [%"class.android::details::TVec2" { %union.anon.14 { %struct.anon.15 { float 0x3FE570A3E0000000, float 0x3FD51EB860000000 } } }, %"class.android::details::TVec2" { %union.anon.14 { %struct.anon.15 { float 0x3FCAE147A0000000, float 0x3FE6B851E0000000 } } }, %"class.android::details::TVec2" { %union.anon.14 { %struct.anon.15 { float 0x3FC1EB8520000000, float 0x3FB47AE140000000 } } }], align 4
@.str.9 = private unnamed_addr constant [20 x i8] c"Rec. ITU-R BT.709-5\00", align 1
@constinit.10 = private unnamed_addr constant [3 x %"class.android::details::TVec2"] [%"class.android::details::TVec2" { %union.anon.14 { %struct.anon.15 { float 0x3FE47AE140000000, float 0x3FD51EB860000000 } } }, %"class.android::details::TVec2" { %union.anon.14 { %struct.anon.15 { float 0x3FD3333340000000, float 0x3FE3333340000000 } } }, %"class.android::details::TVec2" { %union.anon.14 { %struct.anon.15 { float 0x3FC3333340000000, float 0x3FAEB851E0000000 } } }], align 4
@.str.11 = private unnamed_addr constant [21 x i8] c"Rec. ITU-R BT.2020-1\00", align 1
@constinit.12 = private unnamed_addr constant [3 x %"class.android::details::TVec2"] [%"class.android::details::TVec2" { %union.anon.14 { %struct.anon.15 { float 0x3FE6A7EFA0000000, float 0x3FD2B020C0000000 } } }, %"class.android::details::TVec2" { %union.anon.14 { %struct.anon.15 { float 0x3FC5C28F60000000, float 0x3FE9810620000000 } } }, %"class.android::details::TVec2" { %union.anon.14 { %struct.anon.15 { float 0x3FC0C49BA0000000, float 0x3FA78D4FE0000000 } } }], align 4
@.str.13 = private unnamed_addr constant [17 x i8] c"Adobe RGB (1998)\00", align 1
@constinit.14 = private unnamed_addr constant [3 x %"class.android::details::TVec2"] [%"class.android::details::TVec2" { %union.anon.14 { %struct.anon.15 { float 0x3FE47AE140000000, float 0x3FD51EB860000000 } } }, %"class.android::details::TVec2" { %union.anon.14 { %struct.anon.15 { float 0x3FCAE147A0000000, float 0x3FE6B851E0000000 } } }, %"class.android::details::TVec2" { %union.anon.14 { %struct.anon.15 { float 0x3FC3333340000000, float 0x3FAEB851E0000000 } } }], align 4
@.str.15 = private unnamed_addr constant [26 x i8] c"ROMM RGB ISO 22028-2:2013\00", align 1
@constinit.16 = private unnamed_addr constant [3 x %"class.android::details::TVec2"] [%"class.android::details::TVec2" { %union.anon.14 { %struct.anon.15 { float 0x3FE782A9A0000000, float 0x3FD0FAACE0000000 } } }, %"class.android::details::TVec2" { %union.anon.14 { %struct.anon.15 { float 0x3FC46DC5E0000000, float 0x3FEAE48E80000000 } } }, %"class.android::details::TVec2" { %union.anon.14 { %struct.anon.15 { float 0x3FA2BD3C40000000, float 0x3F1A36E2E0000000 } } }], align 4
@.str.17 = private unnamed_addr constant [11 x i8] c"Display P3\00", align 1
@.str.19 = private unnamed_addr constant [29 x i8] c"SMPTE RP 431-2-2007 DCI (P3)\00", align 1
@constinit.20 = private unnamed_addr constant [3 x %"class.android::details::TVec2"] [%"class.android::details::TVec2" { %union.anon.14 { %struct.anon.15 { float 0x3FE5C28F60000000, float 0x3FD47AE140000000 } } }, %"class.android::details::TVec2" { %union.anon.14 { %struct.anon.15 { float 0x3FD0F5C280000000, float 0x3FE6147AE0000000 } } }, %"class.android::details::TVec2" { %union.anon.14 { %struct.anon.15 { float 0x3FC3333340000000, float 0x3FAEB851E0000000 } } }], align 4
@.str.21 = private unnamed_addr constant [26 x i8] c"SMPTE ST 2065-1:2012 ACES\00", align 1
@constinit.22 = private unnamed_addr constant [3 x %"class.android::details::TVec2"] [%"class.android::details::TVec2" { %union.anon.14 { %struct.anon.15 { float 0x3FE782A9A0000000, float 0x3FD0FAACE0000000 } } }, %"class.android::details::TVec2" { %union.anon.14 { %struct.anon.15 { float 0.000000e+00, float 1.000000e+00 } } }, %"class.android::details::TVec2" { %union.anon.14 { %struct.anon.15 { float 0x3F1A36E2E0000000, float 0xBFB3B645A0000000 } } }], align 4
@.str.23 = private unnamed_addr constant [26 x i8] c"Academy S-2014-004 ACEScg\00", align 1
@constinit.24 = private unnamed_addr constant [3 x %"class.android::details::TVec2"] [%"class.android::details::TVec2" { %union.anon.14 { %struct.anon.15 { float 0x3FE6D0E560000000, float 0x3FD2C08320000000 } } }, %"class.android::details::TVec2" { %union.anon.14 { %struct.anon.15 { float 0x3FC51EB860000000, float 0x3FEA8F5C20000000 } } }, %"class.android::details::TVec2" { %union.anon.14 { %struct.anon.15 { float 0x3FC0624DE0000000, float 0x3FA6872B00000000 } } }], align 4
@_ZTVNSt3__110__function6__funcINS_6__bindIRFffRKN7android10ColorSpace18TransferParametersEEJRKNS_12placeholders4__phILi1EEES7_EEENS_9allocatorISF_EEFffEEE = linkonce_odr unnamed_addr constant { [9 x i8*] } { [9 x i8*] [i8* null, i8* null, i8* bitcast (%"class.std::__1::__function::__base"* (%"class.std::__1::__function::__base"*)* @_ZNSt3__110__function6__baseIFffEED2Ev to i8*), i8* bitcast (void (%"class.std::__1::__function::__func"*)* @_ZNSt3__110__function6__funcINS_6__bindIRFffRKN7android10ColorSpace18TransferParametersEEJRKNS_12placeholders4__phILi1EEES7_EEENS_9allocatorISF_EEFffEED0Ev to i8*), i8* bitcast (%"class.std::__1::__function::__base"* (%"class.std::__1::__function::__func"*)* @_ZNKSt3__110__function6__funcINS_6__bindIRFffRKN7android10ColorSpace18TransferParametersEEJRKNS_12placeholders4__phILi1EEES7_EEENS_9allocatorISF_EEFffEE7__cloneEv to i8*), i8* bitcast (void (%"class.std::__1::__function::__func"*, %"class.std::__1::__function::__base"*)* @_ZNKSt3__110__function6__funcINS_6__bindIRFffRKN7android10ColorSpace18TransferParametersEEJRKNS_12placeholders4__phILi1EEES7_EEENS_9allocatorISF_EEFffEE7__cloneEPNS0_6__baseISI_EE to i8*), i8* bitcast (void (%"class.std::__1::__function::__func"*)* @_ZNSt3__110__function6__funcINS_6__bindIRFffRKN7android10ColorSpace18TransferParametersEEJRKNS_12placeholders4__phILi1EEES7_EEENS_9allocatorISF_EEFffEE7destroyEv to i8*), i8* bitcast (void (%"class.std::__1::__function::__func"*)* @_ZNSt3__110__function6__funcINS_6__bindIRFffRKN7android10ColorSpace18TransferParametersEEJRKNS_12placeholders4__phILi1EEES7_EEENS_9allocatorISF_EEFffEE18destroy_deallocateEv to i8*), i8* bitcast (float (%"class.std::__1::__function::__func"*, float*)* @_ZNSt3__110__function6__funcINS_6__bindIRFffRKN7android10ColorSpace18TransferParametersEEJRKNS_12placeholders4__phILi1EEES7_EEENS_9allocatorISF_EEFffEEclEOf to i8*)] }, comdat, align 4
@_ZTVNSt3__110__function6__funcINS_6__bindIRFfffEJRKNS_12placeholders4__phILi1EEEfEEENS_9allocatorISA_EEFffEEE = linkonce_odr unnamed_addr constant { [9 x i8*] } { [9 x i8*] [i8* null, i8* null, i8* bitcast (%"class.std::__1::__function::__base"* (%"class.std::__1::__function::__base"*)* @_ZNSt3__110__function6__baseIFffEED2Ev to i8*), i8* bitcast (void (%"class.std::__1::__function::__func.87"*)* @_ZNSt3__110__function6__funcINS_6__bindIRFfffEJRKNS_12placeholders4__phILi1EEEfEEENS_9allocatorISA_EEFffEED0Ev to i8*), i8* bitcast (%"class.std::__1::__function::__base"* (%"class.std::__1::__function::__func.87"*)* @_ZNKSt3__110__function6__funcINS_6__bindIRFfffEJRKNS_12placeholders4__phILi1EEEfEEENS_9allocatorISA_EEFffEE7__cloneEv to i8*), i8* bitcast (void (%"class.std::__1::__function::__func.87"*, %"class.std::__1::__function::__base"*)* @_ZNKSt3__110__function6__funcINS_6__bindIRFfffEJRKNS_12placeholders4__phILi1EEEfEEENS_9allocatorISA_EEFffEE7__cloneEPNS0_6__baseISD_EE to i8*), i8* bitcast (void (%"class.std::__1::__function::__func.87"*)* @_ZNSt3__110__function6__funcINS_6__bindIRFfffEJRKNS_12placeholders4__phILi1EEEfEEENS_9allocatorISA_EEFffEE7destroyEv to i8*), i8* bitcast (void (%"class.std::__1::__function::__func.87"*)* @_ZNSt3__110__function6__funcINS_6__bindIRFfffEJRKNS_12placeholders4__phILi1EEEfEEENS_9allocatorISA_EEFffEE18destroy_deallocateEv to i8*), i8* bitcast (float (%"class.std::__1::__function::__func.87"*, float*)* @_ZNSt3__110__function6__funcINS_6__bindIRFfffEJRKNS_12placeholders4__phILi1EEEfEEENS_9allocatorISA_EEFffEEclEOf to i8*)] }, comdat, align 4
@_ZTVNSt3__110__function6__funcINS_6__bindIRFfffEJRKNS_12placeholders4__phILi1EEERfEEENS_9allocatorISB_EEFffEEE = linkonce_odr unnamed_addr constant { [9 x i8*] } { [9 x i8*] [i8* null, i8* null, i8* bitcast (%"class.std::__1::__function::__base"* (%"class.std::__1::__function::__base"*)* @_ZNSt3__110__function6__baseIFffEED2Ev to i8*), i8* bitcast (void (%"class.std::__1::__function::__func.118"*)* @_ZNSt3__110__function6__funcINS_6__bindIRFfffEJRKNS_12placeholders4__phILi1EEERfEEENS_9allocatorISB_EEFffEED0Ev to i8*), i8* bitcast (%"class.std::__1::__function::__base"* (%"class.std::__1::__function::__func.118"*)* @_ZNKSt3__110__function6__funcINS_6__bindIRFfffEJRKNS_12placeholders4__phILi1EEERfEEENS_9allocatorISB_EEFffEE7__cloneEv to i8*), i8* bitcast (void (%"class.std::__1::__function::__func.118"*, %"class.std::__1::__function::__base"*)* @_ZNKSt3__110__function6__funcINS_6__bindIRFfffEJRKNS_12placeholders4__phILi1EEERfEEENS_9allocatorISB_EEFffEE7__cloneEPNS0_6__baseISE_EE to i8*), i8* bitcast (void (%"class.std::__1::__function::__func.118"*)* @_ZNSt3__110__function6__funcINS_6__bindIRFfffEJRKNS_12placeholders4__phILi1EEERfEEENS_9allocatorISB_EEFffEE7destroyEv to i8*), i8* bitcast (void (%"class.std::__1::__function::__func.118"*)* @_ZNSt3__110__function6__funcINS_6__bindIRFfffEJRKNS_12placeholders4__phILi1EEERfEEENS_9allocatorISB_EEFffEE18destroy_deallocateEv to i8*), i8* bitcast (float (%"class.std::__1::__function::__func.118"*, float*)* @_ZNSt3__110__function6__funcINS_6__bindIRFfffEJRKNS_12placeholders4__phILi1EEERfEEENS_9allocatorISB_EEFffEEclEOf to i8*)] }, comdat, align 4
@_ZTVNSt3__110__function6__funcIPFffENS_9allocatorIS3_EES2_EE = linkonce_odr unnamed_addr constant { [9 x i8*] } { [9 x i8*] [i8* null, i8* null, i8* bitcast (%"class.std::__1::__function::__base"* (%"class.std::__1::__function::__base"*)* @_ZNSt3__110__function6__baseIFffEED2Ev to i8*), i8* bitcast (void (%"class.std::__1::__function::__func.148"*)* @_ZNSt3__110__function6__funcIPFffENS_9allocatorIS3_EES2_ED0Ev to i8*), i8* bitcast (%"class.std::__1::__function::__base"* (%"class.std::__1::__function::__func.148"*)* @_ZNKSt3__110__function6__funcIPFffENS_9allocatorIS3_EES2_E7__cloneEv to i8*), i8* bitcast (void (%"class.std::__1::__function::__func.148"*, %"class.std::__1::__function::__base"*)* @_ZNKSt3__110__function6__funcIPFffENS_9allocatorIS3_EES2_E7__cloneEPNS0_6__baseIS2_EE to i8*), i8* bitcast (void (%"class.std::__1::__function::__func.148"*)* @_ZNSt3__110__function6__funcIPFffENS_9allocatorIS3_EES2_E7destroyEv to i8*), i8* bitcast (void (%"class.std::__1::__function::__func.148"*)* @_ZNSt3__110__function6__funcIPFffENS_9allocatorIS3_EES2_E18destroy_deallocateEv to i8*), i8* bitcast (float (%"class.std::__1::__function::__func.148"*, float*)* @_ZNSt3__110__function6__funcIPFffENS_9allocatorIS3_EES2_EclEOf to i8*)] }, comdat, align 4
@_ZTVNSt3__110__function6__funcINS_6__bindIRFfffffffEJRKNS_12placeholders4__phILi1EEEfffffEEENS_9allocatorISA_EEFffEEE = linkonce_odr unnamed_addr constant { [9 x i8*] } { [9 x i8*] [i8* null, i8* null, i8* bitcast (%"class.std::__1::__function::__base"* (%"class.std::__1::__function::__base"*)* @_ZNSt3__110__function6__baseIFffEED2Ev to i8*), i8* bitcast (void (%"class.std::__1::__function::__func.186"*)* @_ZNSt3__110__function6__funcINS_6__bindIRFfffffffEJRKNS_12placeholders4__phILi1EEEfffffEEENS_9allocatorISA_EEFffEED0Ev to i8*), i8* bitcast (%"class.std::__1::__function::__base"* (%"class.std::__1::__function::__func.186"*)* @_ZNKSt3__110__function6__funcINS_6__bindIRFfffffffEJRKNS_12placeholders4__phILi1EEEfffffEEENS_9allocatorISA_EEFffEE7__cloneEv to i8*), i8* bitcast (void (%"class.std::__1::__function::__func.186"*, %"class.std::__1::__function::__base"*)* @_ZNKSt3__110__function6__funcINS_6__bindIRFfffffffEJRKNS_12placeholders4__phILi1EEEfffffEEENS_9allocatorISA_EEFffEE7__cloneEPNS0_6__baseISD_EE to i8*), i8* bitcast (void (%"class.std::__1::__function::__func.186"*)* @_ZNSt3__110__function6__funcINS_6__bindIRFfffffffEJRKNS_12placeholders4__phILi1EEEfffffEEENS_9allocatorISA_EEFffEE7destroyEv to i8*), i8* bitcast (void (%"class.std::__1::__function::__func.186"*)* @_ZNSt3__110__function6__funcINS_6__bindIRFfffffffEJRKNS_12placeholders4__phILi1EEEfffffEEENS_9allocatorISA_EEFffEE18destroy_deallocateEv to i8*), i8* bitcast (float (%"class.std::__1::__function::__func.186"*, float*)* @_ZNSt3__110__function6__funcINS_6__bindIRFfffffffEJRKNS_12placeholders4__phILi1EEEfffffEEENS_9allocatorISA_EEFffEEclEOf to i8*)] }, comdat, align 4
@_ZTVNSt3__110__function6__funcINS_6__bindIRFffffEJRKNS_12placeholders4__phILi1EEEffEEENS_9allocatorISA_EEFffEEE = linkonce_odr unnamed_addr constant { [9 x i8*] } { [9 x i8*] [i8* null, i8* null, i8* bitcast (%"class.std::__1::__function::__base"* (%"class.std::__1::__function::__base"*)* @_ZNSt3__110__function6__baseIFffEED2Ev to i8*), i8* bitcast (void (%"class.std::__1::__function::__func.211"*)* @_ZNSt3__110__function6__funcINS_6__bindIRFffffEJRKNS_12placeholders4__phILi1EEEffEEENS_9allocatorISA_EEFffEED0Ev to i8*), i8* bitcast (%"class.std::__1::__function::__base"* (%"class.std::__1::__function::__func.211"*)* @_ZNKSt3__110__function6__funcINS_6__bindIRFffffEJRKNS_12placeholders4__phILi1EEEffEEENS_9allocatorISA_EEFffEE7__cloneEv to i8*), i8* bitcast (void (%"class.std::__1::__function::__func.211"*, %"class.std::__1::__function::__base"*)* @_ZNKSt3__110__function6__funcINS_6__bindIRFffffEJRKNS_12placeholders4__phILi1EEEffEEENS_9allocatorISA_EEFffEE7__cloneEPNS0_6__baseISD_EE to i8*), i8* bitcast (void (%"class.std::__1::__function::__func.211"*)* @_ZNSt3__110__function6__funcINS_6__bindIRFffffEJRKNS_12placeholders4__phILi1EEEffEEENS_9allocatorISA_EEFffEE7destroyEv to i8*), i8* bitcast (void (%"class.std::__1::__function::__func.211"*)* @_ZNSt3__110__function6__funcINS_6__bindIRFffffEJRKNS_12placeholders4__phILi1EEEffEEENS_9allocatorISA_EEFffEE18destroy_deallocateEv to i8*), i8* bitcast (float (%"class.std::__1::__function::__func.211"*, float*)* @_ZNSt3__110__function6__funcINS_6__bindIRFffffEJRKNS_12placeholders4__phILi1EEEffEEENS_9allocatorISA_EEFffEEclEOf to i8*)] }, comdat, align 4

@_ZN7android10ColorSpaceC1ERKNSt3__112basic_stringIcNS1_11char_traitsIcEENS1_9allocatorIcEEEERKNS_7details6TMat33IfEENS1_8functionIFffEEESH_SH_ = unnamed_addr alias %"class.android::ColorSpace"* (%"class.android::ColorSpace"*, %"class.std::__1::basic_string"*, %"class.android::details::TMat33"*, %"class.std::__1::function"*, %"class.std::__1::function"*, %"class.std::__1::function"*), %"class.android::ColorSpace"* (%"class.android::ColorSpace"*, %"class.std::__1::basic_string"*, %"class.android::details::TMat33"*, %"class.std::__1::function"*, %"class.std::__1::function"*, %"class.std::__1::function"*)* @_ZN7android10ColorSpaceC2ERKNSt3__112basic_stringIcNS1_11char_traitsIcEENS1_9allocatorIcEEEERKNS_7details6TMat33IfEENS1_8functionIFffEEESH_SH_
@_ZN7android10ColorSpaceC1ERKNSt3__112basic_stringIcNS1_11char_traitsIcEENS1_9allocatorIcEEEERKNS_7details6TMat33IfEENS0_18TransferParametersENS1_8functionIFffEEE = unnamed_addr alias %"class.android::ColorSpace"* (%"class.android::ColorSpace"*, %"class.std::__1::basic_string"*, %"class.android::details::TMat33"*, [7 x i32], %"class.std::__1::function"*), %"class.android::ColorSpace"* (%"class.android::ColorSpace"*, %"class.std::__1::basic_string"*, %"class.android::details::TMat33"*, [7 x i32], %"class.std::__1::function"*)* @_ZN7android10ColorSpaceC2ERKNSt3__112basic_stringIcNS1_11char_traitsIcEENS1_9allocatorIcEEEERKNS_7details6TMat33IfEENS0_18TransferParametersENS1_8functionIFffEEE
@_ZN7android10ColorSpaceC1ERKNSt3__112basic_stringIcNS1_11char_traitsIcEENS1_9allocatorIcEEEERKNS_7details6TMat33IfEEfNS1_8functionIFffEEE = unnamed_addr alias %"class.android::ColorSpace"* (%"class.android::ColorSpace"*, %"class.std::__1::basic_string"*, %"class.android::details::TMat33"*, float, %"class.std::__1::function"*), %"class.android::ColorSpace"* (%"class.android::ColorSpace"*, %"class.std::__1::basic_string"*, %"class.android::details::TMat33"*, float, %"class.std::__1::function"*)* @_ZN7android10ColorSpaceC2ERKNSt3__112basic_stringIcNS1_11char_traitsIcEENS1_9allocatorIcEEEERKNS_7details6TMat33IfEEfNS1_8functionIFffEEE
@_ZN7android10ColorSpaceC1ERKNSt3__112basic_stringIcNS1_11char_traitsIcEENS1_9allocatorIcEEEERKNS1_5arrayINS_7details5TVec2IfEELj3EEERKSD_NS1_8functionIFffEEESL_SL_ = unnamed_addr alias %"class.android::ColorSpace"* (%"class.android::ColorSpace"*, %"class.std::__1::basic_string"*, %"struct.std::__1::array"*, %"class.android::details::TVec2"*, %"class.std::__1::function"*, %"class.std::__1::function"*, %"class.std::__1::function"*), %"class.android::ColorSpace"* (%"class.android::ColorSpace"*, %"class.std::__1::basic_string"*, %"struct.std::__1::array"*, %"class.android::details::TVec2"*, %"class.std::__1::function"*, %"class.std::__1::function"*, %"class.std::__1::function"*)* @_ZN7android10ColorSpaceC2ERKNSt3__112basic_stringIcNS1_11char_traitsIcEENS1_9allocatorIcEEEERKNS1_5arrayINS_7details5TVec2IfEELj3EEERKSD_NS1_8functionIFffEEESL_SL_
@_ZN7android10ColorSpaceC1ERKNSt3__112basic_stringIcNS1_11char_traitsIcEENS1_9allocatorIcEEEERKNS1_5arrayINS_7details5TVec2IfEELj3EEERKSD_NS0_18TransferParametersENS1_8functionIFffEEE = unnamed_addr alias %"class.android::ColorSpace"* (%"class.android::ColorSpace"*, %"class.std::__1::basic_string"*, %"struct.std::__1::array"*, %"class.android::details::TVec2"*, [7 x i32], %"class.std::__1::function"*), %"class.android::ColorSpace"* (%"class.android::ColorSpace"*, %"class.std::__1::basic_string"*, %"struct.std::__1::array"*, %"class.android::details::TVec2"*, [7 x i32], %"class.std::__1::function"*)* @_ZN7android10ColorSpaceC2ERKNSt3__112basic_stringIcNS1_11char_traitsIcEENS1_9allocatorIcEEEERKNS1_5arrayINS_7details5TVec2IfEELj3EEERKSD_NS0_18TransferParametersENS1_8functionIFffEEE
@_ZN7android10ColorSpaceC1ERKNSt3__112basic_stringIcNS1_11char_traitsIcEENS1_9allocatorIcEEEERKNS1_5arrayINS_7details5TVec2IfEELj3EEERKSD_fNS1_8functionIFffEEE = unnamed_addr alias %"class.android::ColorSpace"* (%"class.android::ColorSpace"*, %"class.std::__1::basic_string"*, %"struct.std::__1::array"*, %"class.android::details::TVec2"*, float, %"class.std::__1::function"*), %"class.android::ColorSpace"* (%"class.android::ColorSpace"*, %"class.std::__1::basic_string"*, %"struct.std::__1::array"*, %"class.android::details::TVec2"*, float, %"class.std::__1::function"*)* @_ZN7android10ColorSpaceC2ERKNSt3__112basic_stringIcNS1_11char_traitsIcEENS1_9allocatorIcEEEERKNS1_5arrayINS_7details5TVec2IfEELj3EEERKSD_fNS1_8functionIFffEEE
@_ZN7android19ColorSpaceConnectorC1ERKNS_10ColorSpaceES3_ = unnamed_addr alias %"class.android::ColorSpaceConnector"* (%"class.android::ColorSpaceConnector"*, %"class.android::ColorSpace"*, %"class.android::ColorSpace"*), %"class.android::ColorSpaceConnector"* (%"class.android::ColorSpaceConnector"*, %"class.android::ColorSpace"*, %"class.android::ColorSpace"*)* @_ZN7android19ColorSpaceConnectorC2ERKNS_10ColorSpaceES3_

; Function Attrs: nounwind sspstrong uwtable
define %"class.android::ColorSpace"* @_ZN7android10ColorSpaceC2ERKNSt3__112basic_stringIcNS1_11char_traitsIcEENS1_9allocatorIcEEEERKNS_7details6TMat33IfEENS1_8functionIFffEEESH_SH_(%"class.android::ColorSpace"* returned, %"class.std::__1::basic_string"* dereferenceable(12), %"class.android::details::TMat33"* readonly dereferenceable(36), %"class.std::__1::function"*, %"class.std::__1::function"*, %"class.std::__1::function"*) unnamed_addr #0 align 2 !dbg !6826 {
  call void @llvm.dbg.value(metadata %"class.android::ColorSpace"* %0, metadata !6828, metadata !DIExpression()), !dbg !6835
  call void @llvm.dbg.value(metadata %"class.std::__1::basic_string"* %1, metadata !6830, metadata !DIExpression()), !dbg !6835
  call void @llvm.dbg.value(metadata %"class.android::details::TMat33"* %2, metadata !6831, metadata !DIExpression()), !dbg !6835
  call void @llvm.dbg.declare(metadata %"class.std::__1::function"* %3, metadata !6832, metadata !DIExpression()), !dbg !6836
  call void @llvm.dbg.declare(metadata %"class.std::__1::function"* %4, metadata !6833, metadata !DIExpression()), !dbg !6837
  call void @llvm.dbg.declare(metadata %"class.std::__1::function"* %5, metadata !6834, metadata !DIExpression()), !dbg !6838
  %7 = getelementptr inbounds %"class.android::ColorSpace", %"class.android::ColorSpace"* %0, i32 0, i32 0, !dbg !6839
  %8 = tail call %"class.std::__1::basic_string"* @_ZNSt3__112basic_stringIcNS_11char_traitsIcEENS_9allocatorIcEEEC1ERKS5_(%"class.std::__1::basic_string"* %7, %"class.std::__1::basic_string"* nonnull dereferenceable(12) %1) #13, !dbg !6839
  %9 = getelementptr inbounds %"class.android::ColorSpace", %"class.android::ColorSpace"* %0, i32 0, i32 1, !dbg !6840
  %10 = bitcast %"class.android::details::TMat33"* %9 to i8*, !dbg !6840
  %11 = bitcast %"class.android::details::TMat33"* %2 to i8*, !dbg !6840
  tail call void @llvm.memcpy.p0i8.p0i8.i32(i8* nonnull align 4 %10, i8* nonnull align 4 %11, i32 36, i1 false), !dbg !6840
  call void @llvm.dbg.value(metadata %"class.android::details::TMat33"* %2, metadata !6841, metadata !DIExpression()), !dbg !6844
  call void @llvm.dbg.value(metadata %"class.android::details::TMat33"* %2, metadata !6846, metadata !DIExpression()), !dbg !6849
  call void @llvm.dbg.value(metadata %"class.android::details::TMat33"* %2, metadata !6851, metadata !DIExpression()), !dbg !6876
  call void @llvm.dbg.declare(metadata %"class.android::ColorSpace"* %0, metadata !6854, metadata !DIExpression(DW_OP_plus_uconst, 48)), !dbg !6878
  call void @llvm.dbg.value(metadata %"class.android::details::TMat33"* %2, metadata !6879, metadata !DIExpression()), !dbg !6884
  call void @llvm.dbg.value(metadata i32 0, metadata !6882, metadata !DIExpression()), !dbg !6884
  %12 = getelementptr inbounds %"class.android::details::TMat33", %"class.android::details::TMat33"* %2, i32 0, i32 0, i32 0, i32 0, i32 0, i32 0, !dbg !6886
  %13 = load float, float* %12, align 4, !dbg !6887, !noalias !6888
  call void @llvm.dbg.value(metadata float %13, metadata !6855, metadata !DIExpression()), !dbg !6876
  call void @llvm.dbg.value(metadata %"class.android::details::TMat33"* %2, metadata !6879, metadata !DIExpression(DW_OP_plus_uconst, 12, DW_OP_stack_value)), !dbg !6895
  call void @llvm.dbg.value(metadata i32 0, metadata !6882, metadata !DIExpression()), !dbg !6895
  %14 = getelementptr inbounds %"class.android::details::TMat33", %"class.android::details::TMat33"* %2, i32 0, i32 0, i32 1, i32 0, i32 0, i32 0, !dbg !6897
  %15 = load float, float* %14, align 4, !dbg !6898, !noalias !6888
  call void @llvm.dbg.value(metadata float %15, metadata !6858, metadata !DIExpression()), !dbg !6876
  call void @llvm.dbg.value(metadata %"class.android::details::TMat33"* %2, metadata !6879, metadata !DIExpression(DW_OP_plus_uconst, 24, DW_OP_stack_value)), !dbg !6899
  call void @llvm.dbg.value(metadata i32 0, metadata !6882, metadata !DIExpression()), !dbg !6899
  %16 = getelementptr inbounds %"class.android::details::TMat33", %"class.android::details::TMat33"* %2, i32 0, i32 0, i32 2, i32 0, i32 0, i32 0, !dbg !6901
  %17 = load float, float* %16, align 4, !dbg !6902, !noalias !6888
  call void @llvm.dbg.value(metadata float %17, metadata !6859, metadata !DIExpression()), !dbg !6876
  call void @llvm.dbg.value(metadata %"class.android::details::TMat33"* %2, metadata !6879, metadata !DIExpression()), !dbg !6903
  call void @llvm.dbg.value(metadata i32 1, metadata !6882, metadata !DIExpression()), !dbg !6903
  %18 = getelementptr inbounds float, float* %12, i32 1, !dbg !6905
  %19 = load float, float* %18, align 4, !dbg !6906, !noalias !6888
  call void @llvm.dbg.value(metadata float %19, metadata !6860, metadata !DIExpression()), !dbg !6876
  call void @llvm.dbg.value(metadata %"class.android::details::TMat33"* %2, metadata !6879, metadata !DIExpression(DW_OP_plus_uconst, 12, DW_OP_stack_value)), !dbg !6907
  call void @llvm.dbg.value(metadata i32 1, metadata !6882, metadata !DIExpression()), !dbg !6907
  %20 = getelementptr inbounds float, float* %14, i32 1, !dbg !6909
  %21 = load float, float* %20, align 4, !dbg !6910, !noalias !6888
  call void @llvm.dbg.value(metadata float %21, metadata !6861, metadata !DIExpression()), !dbg !6876
  call void @llvm.dbg.value(metadata %"class.android::details::TMat33"* %2, metadata !6879, metadata !DIExpression(DW_OP_plus_uconst, 24, DW_OP_stack_value)), !dbg !6911
  call void @llvm.dbg.value(metadata i32 1, metadata !6882, metadata !DIExpression()), !dbg !6911
  %22 = getelementptr inbounds float, float* %16, i32 1, !dbg !6913
  %23 = load float, float* %22, align 4, !dbg !6914, !noalias !6888
  call void @llvm.dbg.value(metadata float %23, metadata !6862, metadata !DIExpression()), !dbg !6876
  call void @llvm.dbg.value(metadata %"class.android::details::TMat33"* %2, metadata !6879, metadata !DIExpression()), !dbg !6915
  call void @llvm.dbg.value(metadata i32 2, metadata !6882, metadata !DIExpression()), !dbg !6915
  %24 = getelementptr inbounds float, float* %12, i32 2, !dbg !6917
  %25 = load float, float* %24, align 4, !dbg !6918, !noalias !6888
  call void @llvm.dbg.value(metadata float %25, metadata !6863, metadata !DIExpression()), !dbg !6876
  call void @llvm.dbg.value(metadata %"class.android::details::TMat33"* %2, metadata !6879, metadata !DIExpression(DW_OP_plus_uconst, 12, DW_OP_stack_value)), !dbg !6919
  call void @llvm.dbg.value(metadata i32 2, metadata !6882, metadata !DIExpression()), !dbg !6919
  %26 = getelementptr inbounds float, float* %14, i32 2, !dbg !6921
  %27 = load float, float* %26, align 4, !dbg !6922, !noalias !6888
  call void @llvm.dbg.value(metadata float %27, metadata !6864, metadata !DIExpression()), !dbg !6876
  call void @llvm.dbg.value(metadata %"class.android::details::TMat33"* %2, metadata !6879, metadata !DIExpression(DW_OP_plus_uconst, 24, DW_OP_stack_value)), !dbg !6923
  call void @llvm.dbg.value(metadata i32 2, metadata !6882, metadata !DIExpression()), !dbg !6923
  %28 = getelementptr inbounds float, float* %16, i32 2, !dbg !6925
  %29 = load float, float* %28, align 4, !dbg !6926, !noalias !6888
  call void @llvm.dbg.value(metadata float %29, metadata !6865, metadata !DIExpression()), !dbg !6876
  %30 = fmul float %21, %29, !dbg !6927
  %31 = fmul float %23, %27, !dbg !6928
  %32 = fsub float %30, %31, !dbg !6929
  call void @llvm.dbg.value(metadata float %32, metadata !6866, metadata !DIExpression()), !dbg !6876
  %33 = fmul float %23, %25, !dbg !6930
  %34 = fmul float %19, %29, !dbg !6931
  %35 = fsub float %33, %34, !dbg !6932
  call void @llvm.dbg.value(metadata float %35, metadata !6867, metadata !DIExpression()), !dbg !6876
  %36 = fmul float %19, %27, !dbg !6933
  %37 = fmul float %21, %25, !dbg !6934
  %38 = fsub float %36, %37, !dbg !6935
  call void @llvm.dbg.value(metadata float %38, metadata !6868, metadata !DIExpression()), !dbg !6876
  call void @llvm.dbg.value(metadata %"class.android::ColorSpace"* %0, metadata !6936, metadata !DIExpression(DW_OP_plus_uconst, 48, DW_OP_stack_value)), !dbg !6940
  call void @llvm.dbg.value(metadata i32 0, metadata !6939, metadata !DIExpression()), !dbg !6940
  %39 = getelementptr inbounds %"class.android::ColorSpace", %"class.android::ColorSpace"* %0, i32 0, i32 2, i32 0, i32 0, i32 0, i32 0, i32 0, !dbg !6942
  call void @llvm.dbg.value(metadata %"class.android::ColorSpace"* %0, metadata !6936, metadata !DIExpression(DW_OP_plus_uconst, 48, DW_OP_stack_value)), !dbg !6943
  call void @llvm.dbg.value(metadata i32 1, metadata !6939, metadata !DIExpression()), !dbg !6943
  %40 = getelementptr inbounds float, float* %39, i32 1, !dbg !6945
  call void @llvm.dbg.value(metadata %"class.android::ColorSpace"* %0, metadata !6936, metadata !DIExpression(DW_OP_plus_uconst, 48, DW_OP_stack_value)), !dbg !6946
  call void @llvm.dbg.value(metadata i32 2, metadata !6939, metadata !DIExpression()), !dbg !6946
  %41 = getelementptr inbounds float, float* %39, i32 2, !dbg !6948
  %42 = fmul float %17, %27, !dbg !6949
  %43 = fmul float %15, %29, !dbg !6950
  %44 = fsub float %42, %43, !dbg !6951
  call void @llvm.dbg.value(metadata %"class.android::ColorSpace"* %0, metadata !6936, metadata !DIExpression(DW_OP_plus_uconst, 48, DW_OP_plus_uconst, 12, DW_OP_stack_value)), !dbg !6952
  call void @llvm.dbg.value(metadata i32 0, metadata !6939, metadata !DIExpression()), !dbg !6952
  %45 = getelementptr inbounds %"class.android::ColorSpace", %"class.android::ColorSpace"* %0, i32 0, i32 2, i32 0, i32 1, i32 0, i32 0, i32 0, !dbg !6954
  %46 = fmul float %13, %29, !dbg !6955
  %47 = fmul float %17, %25, !dbg !6956
  %48 = fsub float %46, %47, !dbg !6957
  call void @llvm.dbg.value(metadata %"class.android::ColorSpace"* %0, metadata !6936, metadata !DIExpression(DW_OP_plus_uconst, 48, DW_OP_plus_uconst, 12, DW_OP_stack_value)), !dbg !6958
  call void @llvm.dbg.value(metadata i32 1, metadata !6939, metadata !DIExpression()), !dbg !6958
  %49 = getelementptr inbounds float, float* %45, i32 1, !dbg !6960
  %50 = fmul float %15, %25, !dbg !6961
  %51 = fmul float %13, %27, !dbg !6962
  %52 = fsub float %50, %51, !dbg !6963
  call void @llvm.dbg.value(metadata %"class.android::ColorSpace"* %0, metadata !6936, metadata !DIExpression(DW_OP_plus_uconst, 48, DW_OP_plus_uconst, 12, DW_OP_stack_value)), !dbg !6964
  call void @llvm.dbg.value(metadata i32 2, metadata !6939, metadata !DIExpression()), !dbg !6964
  %53 = getelementptr inbounds float, float* %45, i32 2, !dbg !6966
  %54 = fmul float %15, %23, !dbg !6967
  %55 = fmul float %17, %21, !dbg !6968
  %56 = fsub float %54, %55, !dbg !6969
  call void @llvm.dbg.value(metadata %"class.android::ColorSpace"* %0, metadata !6936, metadata !DIExpression(DW_OP_plus_uconst, 48, DW_OP_plus_uconst, 24, DW_OP_stack_value)), !dbg !6970
  call void @llvm.dbg.value(metadata i32 0, metadata !6939, metadata !DIExpression()), !dbg !6970
  %57 = getelementptr inbounds %"class.android::ColorSpace", %"class.android::ColorSpace"* %0, i32 0, i32 2, i32 0, i32 2, i32 0, i32 0, i32 0, !dbg !6972
  %58 = fmul float %17, %19, !dbg !6973
  %59 = fmul float %13, %23, !dbg !6974
  %60 = fsub float %58, %59, !dbg !6975
  call void @llvm.dbg.value(metadata %"class.android::ColorSpace"* %0, metadata !6936, metadata !DIExpression(DW_OP_plus_uconst, 48, DW_OP_plus_uconst, 24, DW_OP_stack_value)), !dbg !6976
  call void @llvm.dbg.value(metadata i32 1, metadata !6939, metadata !DIExpression()), !dbg !6976
  %61 = getelementptr inbounds float, float* %57, i32 1, !dbg !6978
  %62 = fmul float %13, %21, !dbg !6979
  %63 = fmul float %15, %19, !dbg !6980
  %64 = fsub float %62, %63, !dbg !6981
  call void @llvm.dbg.value(metadata %"class.android::ColorSpace"* %0, metadata !6936, metadata !DIExpression(DW_OP_plus_uconst, 48, DW_OP_plus_uconst, 24, DW_OP_stack_value)), !dbg !6982
  call void @llvm.dbg.value(metadata i32 2, metadata !6939, metadata !DIExpression()), !dbg !6982
  %65 = getelementptr inbounds float, float* %57, i32 2, !dbg !6984
  %66 = fmul float %13, %32, !dbg !6985
  %67 = fmul float %15, %35, !dbg !6986
  %68 = fadd float %66, %67, !dbg !6987
  %69 = fmul float %17, %38, !dbg !6988
  %70 = fadd float %69, %68, !dbg !6989
  call void @llvm.dbg.value(metadata float %70, metadata !6869, metadata !DIExpression()), !dbg !6876
  call void @llvm.dbg.value(metadata i32 0, metadata !6870, metadata !DIExpression()), !dbg !6990
  call void @llvm.dbg.value(metadata i32 0, metadata !6870, metadata !DIExpression()), !dbg !6990
  call void @llvm.dbg.value(metadata i32 0, metadata !6872, metadata !DIExpression()), !dbg !6991
  call void @llvm.dbg.value(metadata i32 0, metadata !6872, metadata !DIExpression()), !dbg !6991
  call void @llvm.dbg.value(metadata i32 0, metadata !6939, metadata !DIExpression()), !dbg !6992
  %71 = fdiv float %32, %70, !dbg !6996
  store float %71, float* %39, align 4, !dbg !6996, !alias.scope !6888
  call void @llvm.dbg.value(metadata i32 1, metadata !6872, metadata !DIExpression()), !dbg !6991
  call void @llvm.dbg.value(metadata i32 1, metadata !6872, metadata !DIExpression()), !dbg !6991
  call void @llvm.dbg.value(metadata i32 1, metadata !6939, metadata !DIExpression()), !dbg !6992
  %72 = fdiv float %35, %70, !dbg !6996
  store float %72, float* %40, align 4, !dbg !6996, !alias.scope !6888
  call void @llvm.dbg.value(metadata i32 2, metadata !6872, metadata !DIExpression()), !dbg !6991
  call void @llvm.dbg.value(metadata i32 2, metadata !6872, metadata !DIExpression()), !dbg !6991
  call void @llvm.dbg.value(metadata i32 2, metadata !6939, metadata !DIExpression()), !dbg !6992
  %73 = fdiv float %38, %70, !dbg !6996
  store float %73, float* %41, align 4, !dbg !6996, !alias.scope !6888
  call void @llvm.dbg.value(metadata i32 3, metadata !6872, metadata !DIExpression()), !dbg !6991
  call void @llvm.dbg.value(metadata i32 1, metadata !6870, metadata !DIExpression()), !dbg !6990
  call void @llvm.dbg.value(metadata i32 1, metadata !6870, metadata !DIExpression()), !dbg !6990
  call void @llvm.dbg.value(metadata i32 0, metadata !6872, metadata !DIExpression()), !dbg !6991
  call void @llvm.dbg.value(metadata i32 0, metadata !6872, metadata !DIExpression()), !dbg !6991
  call void @llvm.dbg.value(metadata i32 0, metadata !6939, metadata !DIExpression()), !dbg !6992
  %74 = fdiv float %44, %70, !dbg !6996
  store float %74, float* %45, align 4, !dbg !6996, !alias.scope !6888
  call void @llvm.dbg.value(metadata i32 1, metadata !6872, metadata !DIExpression()), !dbg !6991
  call void @llvm.dbg.value(metadata i32 1, metadata !6872, metadata !DIExpression()), !dbg !6991
  call void @llvm.dbg.value(metadata i32 1, metadata !6939, metadata !DIExpression()), !dbg !6992
  %75 = fdiv float %48, %70, !dbg !6996
  store float %75, float* %49, align 4, !dbg !6996, !alias.scope !6888
  call void @llvm.dbg.value(metadata i32 2, metadata !6872, metadata !DIExpression()), !dbg !6991
  call void @llvm.dbg.value(metadata i32 2, metadata !6872, metadata !DIExpression()), !dbg !6991
  call void @llvm.dbg.value(metadata i32 2, metadata !6939, metadata !DIExpression()), !dbg !6992
  %76 = fdiv float %52, %70, !dbg !6996
  store float %76, float* %53, align 4, !dbg !6996, !alias.scope !6888
  call void @llvm.dbg.value(metadata i32 3, metadata !6872, metadata !DIExpression()), !dbg !6991
  call void @llvm.dbg.value(metadata i32 2, metadata !6870, metadata !DIExpression()), !dbg !6990
  call void @llvm.dbg.value(metadata i32 2, metadata !6870, metadata !DIExpression()), !dbg !6990
  call void @llvm.dbg.value(metadata i32 0, metadata !6872, metadata !DIExpression()), !dbg !6991
  call void @llvm.dbg.value(metadata i32 0, metadata !6872, metadata !DIExpression()), !dbg !6991
  call void @llvm.dbg.value(metadata i32 0, metadata !6939, metadata !DIExpression()), !dbg !6992
  %77 = fdiv float %56, %70, !dbg !6996
  store float %77, float* %57, align 4, !dbg !6996, !alias.scope !6888
  call void @llvm.dbg.value(metadata i32 1, metadata !6872, metadata !DIExpression()), !dbg !6991
  call void @llvm.dbg.value(metadata i32 1, metadata !6872, metadata !DIExpression()), !dbg !6991
  call void @llvm.dbg.value(metadata i32 1, metadata !6939, metadata !DIExpression()), !dbg !6992
  %78 = fdiv float %60, %70, !dbg !6996
  store float %78, float* %61, align 4, !dbg !6996, !alias.scope !6888
  call void @llvm.dbg.value(metadata i32 2, metadata !6872, metadata !DIExpression()), !dbg !6991
  call void @llvm.dbg.value(metadata i32 2, metadata !6872, metadata !DIExpression()), !dbg !6991
  call void @llvm.dbg.value(metadata i32 2, metadata !6939, metadata !DIExpression()), !dbg !6992
  %79 = fdiv float %64, %70, !dbg !6996
  store float %79, float* %65, align 4, !dbg !6996, !alias.scope !6888
  call void @llvm.dbg.value(metadata i32 3, metadata !6872, metadata !DIExpression()), !dbg !6991
  call void @llvm.dbg.value(metadata i32 3, metadata !6870, metadata !DIExpression()), !dbg !6990
  %80 = getelementptr inbounds %"class.android::ColorSpace", %"class.android::ColorSpace"* %0, i32 0, i32 3, !dbg !6997
  call void @llvm.dbg.value(metadata %"struct.android::ColorSpace::TransferParameters"* %80, metadata !6998, metadata !DIExpression()) #14, !dbg !7006
  %81 = bitcast %"struct.android::ColorSpace::TransferParameters"* %80 to i8*, !dbg !7008
  tail call void @llvm.memset.p0i8.i64(i8* nonnull align 4 %81, i8 0, i64 28, i1 false) #14, !dbg !7009
  %82 = getelementptr inbounds %"class.android::ColorSpace", %"class.android::ColorSpace"* %0, i32 0, i32 4, !dbg !7010
  call void @llvm.dbg.value(metadata %"class.std::__1::function"* %82, metadata !7011, metadata !DIExpression()) #14, !dbg !7016
  call void @llvm.dbg.value(metadata %"class.std::__1::function"* %3, metadata !7014, metadata !DIExpression()) #14, !dbg !7016
  %83 = getelementptr inbounds %"class.std::__1::function", %"class.std::__1::function"* %3, i32 0, i32 1, !dbg !7018
  %84 = load %"class.std::__1::__function::__base"*, %"class.std::__1::__function::__base"** %83, align 8, !dbg !7018
  %85 = icmp eq %"class.std::__1::__function::__base"* %84, null, !dbg !7021
  br i1 %85, label %86, label %88, !dbg !7022

86:                                               ; preds = %6
  %87 = getelementptr inbounds %"class.android::ColorSpace", %"class.android::ColorSpace"* %0, i32 0, i32 4, i32 1, !dbg !7023
  store %"class.std::__1::__function::__base"* null, %"class.std::__1::__function::__base"** %87, align 8, !dbg !7024
  br label %103, !dbg !7023

88:                                               ; preds = %6
  %89 = bitcast %"class.std::__1::__function::__base"* %84 to i8*, !dbg !7025
  %90 = getelementptr inbounds %"class.std::__1::function", %"class.std::__1::function"* %3, i32 0, i32 0, i32 0, i32 0, !dbg !7027
  %91 = icmp eq i8* %90, %89, !dbg !7028
  br i1 %91, label %92, label %101, !dbg !7029

92:                                               ; preds = %88
  call void @llvm.dbg.value(metadata %"class.std::__1::function"* %82, metadata !7030, metadata !DIExpression()) #14, !dbg !7033
  %93 = bitcast %"class.std::__1::function"* %82 to %"class.std::__1::__function::__base"*, !dbg !7036
  %94 = getelementptr inbounds %"class.android::ColorSpace", %"class.android::ColorSpace"* %0, i32 0, i32 4, i32 1, !dbg !7037
  %95 = bitcast %"class.std::__1::__function::__base"** %94 to %"class.std::__1::function"**, !dbg !7038
  store %"class.std::__1::function"* %82, %"class.std::__1::function"** %95, align 8, !dbg !7038
  %96 = load %"class.std::__1::__function::__base"*, %"class.std::__1::__function::__base"** %83, align 8, !dbg !7039
  %97 = bitcast %"class.std::__1::__function::__base"* %96 to void (%"class.std::__1::__function::__base"*, %"class.std::__1::__function::__base"*)***, !dbg !7040
  %98 = load void (%"class.std::__1::__function::__base"*, %"class.std::__1::__function::__base"*)**, void (%"class.std::__1::__function::__base"*, %"class.std::__1::__function::__base"*)*** %97, align 4, !dbg !7040
  %99 = getelementptr inbounds void (%"class.std::__1::__function::__base"*, %"class.std::__1::__function::__base"*)*, void (%"class.std::__1::__function::__base"*, %"class.std::__1::__function::__base"*)** %98, i32 3, !dbg !7040
  %100 = load void (%"class.std::__1::__function::__base"*, %"class.std::__1::__function::__base"*)*, void (%"class.std::__1::__function::__base"*, %"class.std::__1::__function::__base"*)** %99, align 4, !dbg !7040
  tail call void %100(%"class.std::__1::__function::__base"* %96, %"class.std::__1::__function::__base"* nonnull %93) #13, !dbg !7040
  br label %103, !dbg !7041

101:                                              ; preds = %88
  %102 = getelementptr inbounds %"class.android::ColorSpace", %"class.android::ColorSpace"* %0, i32 0, i32 4, i32 1, !dbg !7042
  store %"class.std::__1::__function::__base"* %84, %"class.std::__1::__function::__base"** %102, align 8, !dbg !7044
  store %"class.std::__1::__function::__base"* null, %"class.std::__1::__function::__base"** %83, align 8, !dbg !7045
  br label %103

103:                                              ; preds = %86, %92, %101
  %104 = getelementptr inbounds %"class.android::ColorSpace", %"class.android::ColorSpace"* %0, i32 0, i32 5, !dbg !7046
  call void @llvm.dbg.value(metadata %"class.std::__1::function"* %104, metadata !7011, metadata !DIExpression()) #14, !dbg !7047
  call void @llvm.dbg.value(metadata %"class.std::__1::function"* %4, metadata !7014, metadata !DIExpression()) #14, !dbg !7047
  %105 = getelementptr inbounds %"class.std::__1::function", %"class.std::__1::function"* %4, i32 0, i32 1, !dbg !7049
  %106 = load %"class.std::__1::__function::__base"*, %"class.std::__1::__function::__base"** %105, align 8, !dbg !7049
  %107 = icmp eq %"class.std::__1::__function::__base"* %106, null, !dbg !7050
  br i1 %107, label %108, label %110, !dbg !7051

108:                                              ; preds = %103
  %109 = getelementptr inbounds %"class.android::ColorSpace", %"class.android::ColorSpace"* %0, i32 0, i32 5, i32 1, !dbg !7052
  store %"class.std::__1::__function::__base"* null, %"class.std::__1::__function::__base"** %109, align 8, !dbg !7053
  br label %125, !dbg !7052

110:                                              ; preds = %103
  %111 = bitcast %"class.std::__1::__function::__base"* %106 to i8*, !dbg !7054
  %112 = getelementptr inbounds %"class.std::__1::function", %"class.std::__1::function"* %4, i32 0, i32 0, i32 0, i32 0, !dbg !7055
  %113 = icmp eq i8* %112, %111, !dbg !7056
  br i1 %113, label %114, label %123, !dbg !7057

114:                                              ; preds = %110
  call void @llvm.dbg.value(metadata %"class.std::__1::function"* %104, metadata !7030, metadata !DIExpression()) #14, !dbg !7058
  %115 = bitcast %"class.std::__1::function"* %104 to %"class.std::__1::__function::__base"*, !dbg !7060
  %116 = getelementptr inbounds %"class.android::ColorSpace", %"class.android::ColorSpace"* %0, i32 0, i32 5, i32 1, !dbg !7061
  %117 = bitcast %"class.std::__1::__function::__base"** %116 to %"class.std::__1::function"**, !dbg !7062
  store %"class.std::__1::function"* %104, %"class.std::__1::function"** %117, align 8, !dbg !7062
  %118 = load %"class.std::__1::__function::__base"*, %"class.std::__1::__function::__base"** %105, align 8, !dbg !7063
  %119 = bitcast %"class.std::__1::__function::__base"* %118 to void (%"class.std::__1::__function::__base"*, %"class.std::__1::__function::__base"*)***, !dbg !7064
  %120 = load void (%"class.std::__1::__function::__base"*, %"class.std::__1::__function::__base"*)**, void (%"class.std::__1::__function::__base"*, %"class.std::__1::__function::__base"*)*** %119, align 4, !dbg !7064
  %121 = getelementptr inbounds void (%"class.std::__1::__function::__base"*, %"class.std::__1::__function::__base"*)*, void (%"class.std::__1::__function::__base"*, %"class.std::__1::__function::__base"*)** %120, i32 3, !dbg !7064
  %122 = load void (%"class.std::__1::__function::__base"*, %"class.std::__1::__function::__base"*)*, void (%"class.std::__1::__function::__base"*, %"class.std::__1::__function::__base"*)** %121, align 4, !dbg !7064
  tail call void %122(%"class.std::__1::__function::__base"* %118, %"class.std::__1::__function::__base"* nonnull %115) #13, !dbg !7064
  br label %125, !dbg !7065

123:                                              ; preds = %110
  %124 = getelementptr inbounds %"class.android::ColorSpace", %"class.android::ColorSpace"* %0, i32 0, i32 5, i32 1, !dbg !7066
  store %"class.std::__1::__function::__base"* %106, %"class.std::__1::__function::__base"** %124, align 8, !dbg !7067
  store %"class.std::__1::__function::__base"* null, %"class.std::__1::__function::__base"** %105, align 8, !dbg !7068
  br label %125

125:                                              ; preds = %108, %114, %123
  %126 = getelementptr inbounds %"class.android::ColorSpace", %"class.android::ColorSpace"* %0, i32 0, i32 6, !dbg !7069
  call void @llvm.dbg.value(metadata %"class.std::__1::function"* %126, metadata !7011, metadata !DIExpression()) #14, !dbg !7070
  call void @llvm.dbg.value(metadata %"class.std::__1::function"* %5, metadata !7014, metadata !DIExpression()) #14, !dbg !7070
  %127 = getelementptr inbounds %"class.std::__1::function", %"class.std::__1::function"* %5, i32 0, i32 1, !dbg !7072
  %128 = load %"class.std::__1::__function::__base"*, %"class.std::__1::__function::__base"** %127, align 8, !dbg !7072
  %129 = icmp eq %"class.std::__1::__function::__base"* %128, null, !dbg !7073
  br i1 %129, label %130, label %132, !dbg !7074

130:                                              ; preds = %125
  %131 = getelementptr inbounds %"class.android::ColorSpace", %"class.android::ColorSpace"* %0, i32 0, i32 6, i32 1, !dbg !7075
  store %"class.std::__1::__function::__base"* null, %"class.std::__1::__function::__base"** %131, align 8, !dbg !7076
  br label %147, !dbg !7075

132:                                              ; preds = %125
  %133 = bitcast %"class.std::__1::__function::__base"* %128 to i8*, !dbg !7077
  %134 = getelementptr inbounds %"class.std::__1::function", %"class.std::__1::function"* %5, i32 0, i32 0, i32 0, i32 0, !dbg !7078
  %135 = icmp eq i8* %134, %133, !dbg !7079
  br i1 %135, label %136, label %145, !dbg !7080

136:                                              ; preds = %132
  call void @llvm.dbg.value(metadata %"class.std::__1::function"* %126, metadata !7030, metadata !DIExpression()) #14, !dbg !7081
  %137 = bitcast %"class.std::__1::function"* %126 to %"class.std::__1::__function::__base"*, !dbg !7083
  %138 = getelementptr inbounds %"class.android::ColorSpace", %"class.android::ColorSpace"* %0, i32 0, i32 6, i32 1, !dbg !7084
  %139 = bitcast %"class.std::__1::__function::__base"** %138 to %"class.std::__1::function"**, !dbg !7085
  store %"class.std::__1::function"* %126, %"class.std::__1::function"** %139, align 8, !dbg !7085
  %140 = load %"class.std::__1::__function::__base"*, %"class.std::__1::__function::__base"** %127, align 8, !dbg !7086
  %141 = bitcast %"class.std::__1::__function::__base"* %140 to void (%"class.std::__1::__function::__base"*, %"class.std::__1::__function::__base"*)***, !dbg !7087
  %142 = load void (%"class.std::__1::__function::__base"*, %"class.std::__1::__function::__base"*)**, void (%"class.std::__1::__function::__base"*, %"class.std::__1::__function::__base"*)*** %141, align 4, !dbg !7087
  %143 = getelementptr inbounds void (%"class.std::__1::__function::__base"*, %"class.std::__1::__function::__base"*)*, void (%"class.std::__1::__function::__base"*, %"class.std::__1::__function::__base"*)** %142, i32 3, !dbg !7087
  %144 = load void (%"class.std::__1::__function::__base"*, %"class.std::__1::__function::__base"*)*, void (%"class.std::__1::__function::__base"*, %"class.std::__1::__function::__base"*)** %143, align 4, !dbg !7087
  tail call void %144(%"class.std::__1::__function::__base"* %140, %"class.std::__1::__function::__base"* nonnull %137) #13, !dbg !7087
  br label %147, !dbg !7088

145:                                              ; preds = %132
  %146 = getelementptr inbounds %"class.android::ColorSpace", %"class.android::ColorSpace"* %0, i32 0, i32 6, i32 1, !dbg !7089
  store %"class.std::__1::__function::__base"* %128, %"class.std::__1::__function::__base"** %146, align 8, !dbg !7090
  store %"class.std::__1::__function::__base"* null, %"class.std::__1::__function::__base"** %127, align 8, !dbg !7091
  br label %147

147:                                              ; preds = %130, %136, %145
  call void @llvm.dbg.value(metadata %"class.android::details::TMat33"* %2, metadata !7092, metadata !DIExpression()), !dbg !7100
  call void @llvm.dbg.value(metadata %"class.android::details::TVec3"* undef, metadata !7097, metadata !DIExpression(DW_OP_deref)), !dbg !7100
  call void @llvm.dbg.value(metadata %"class.android::details::TMat33"* %2, metadata !7102, metadata !DIExpression()), !dbg !7113
  call void @llvm.dbg.value(metadata %"class.android::details::TVec3"* undef, metadata !7107, metadata !DIExpression()), !dbg !7113
  call void @llvm.dbg.value(metadata i32 0, metadata !7109, metadata !DIExpression()), !dbg !7115
  call void @llvm.dbg.value(metadata i32 0, metadata !7109, metadata !DIExpression()), !dbg !7115
  %148 = load float, float* %12, align 4, !dbg !7116, !noalias !7119
  %149 = getelementptr inbounds %"class.android::details::TMat33", %"class.android::details::TMat33"* %2, i32 0, i32 0, i32 0, i32 0, i32 0, i32 1, !dbg !7116
  %150 = load float, float* %149, align 4, !dbg !7116, !noalias !7119
  %151 = getelementptr inbounds %"class.android::details::TMat33", %"class.android::details::TMat33"* %2, i32 0, i32 0, i32 0, i32 0, i32 0, i32 2, !dbg !7116
  %152 = load float, float* %151, align 4, !dbg !7116, !noalias !7119
  call void @llvm.dbg.value(metadata %"class.android::details::TVec3"* undef, metadata !7124, metadata !DIExpression()), !dbg !7130
  call void @llvm.dbg.value(metadata %"class.android::details::TVecProductOperators"* undef, metadata !7132, metadata !DIExpression()), !dbg !7140
  call void @llvm.dbg.value(metadata %"class.android::details::TVec3"* undef, metadata !7135, metadata !DIExpression()), !dbg !7140
  call void @llvm.dbg.value(metadata i32 0, metadata !7137, metadata !DIExpression()), !dbg !7142
  call void @llvm.dbg.value(metadata i32 0, metadata !7137, metadata !DIExpression()), !dbg !7142
  call void @llvm.dbg.value(metadata i32 1, metadata !7137, metadata !DIExpression()), !dbg !7142
  call void @llvm.dbg.value(metadata i32 1, metadata !7137, metadata !DIExpression()), !dbg !7142
  call void @llvm.dbg.value(metadata i32 2, metadata !7137, metadata !DIExpression()), !dbg !7142
  call void @llvm.dbg.value(metadata i32 2, metadata !7137, metadata !DIExpression()), !dbg !7142
  call void @llvm.dbg.value(metadata i32 3, metadata !7137, metadata !DIExpression()), !dbg !7142
  call void @llvm.dbg.value(metadata %"class.android::details::TVec3"* undef, metadata !7143, metadata !DIExpression()), !dbg !7151
  call void @llvm.dbg.value(metadata %"class.android::details::TVec3"* undef, metadata !7146, metadata !DIExpression()), !dbg !7151
  call void @llvm.dbg.value(metadata i32 0, metadata !7148, metadata !DIExpression()), !dbg !7153
  call void @llvm.dbg.value(metadata i32 0, metadata !7148, metadata !DIExpression()), !dbg !7153
  %153 = fadd float %148, 0.000000e+00, !dbg !7154
  call void @llvm.dbg.value(metadata i32 1, metadata !7148, metadata !DIExpression()), !dbg !7153
  call void @llvm.dbg.value(metadata i32 1, metadata !7148, metadata !DIExpression()), !dbg !7153
  %154 = fadd float %150, 0.000000e+00, !dbg !7154
  call void @llvm.dbg.value(metadata i32 2, metadata !7148, metadata !DIExpression()), !dbg !7153
  call void @llvm.dbg.value(metadata i32 2, metadata !7148, metadata !DIExpression()), !dbg !7153
  %155 = fadd float %152, 0.000000e+00, !dbg !7154
  call void @llvm.dbg.value(metadata i32 3, metadata !7148, metadata !DIExpression()), !dbg !7153
  call void @llvm.dbg.value(metadata i32 1, metadata !7109, metadata !DIExpression()), !dbg !7115
  call void @llvm.dbg.value(metadata i32 1, metadata !7109, metadata !DIExpression()), !dbg !7115
  %156 = load float, float* %14, align 4, !dbg !7116, !noalias !7119
  %157 = getelementptr inbounds %"class.android::details::TMat33", %"class.android::details::TMat33"* %2, i32 0, i32 0, i32 1, i32 0, i32 0, i32 1, !dbg !7116
  %158 = load float, float* %157, align 4, !dbg !7116, !noalias !7119
  %159 = getelementptr inbounds %"class.android::details::TMat33", %"class.android::details::TMat33"* %2, i32 0, i32 0, i32 1, i32 0, i32 0, i32 2, !dbg !7116
  %160 = load float, float* %159, align 4, !dbg !7116, !noalias !7119
  call void @llvm.dbg.value(metadata %"class.android::details::TVec3"* undef, metadata !7124, metadata !DIExpression()), !dbg !7130
  call void @llvm.dbg.value(metadata %"class.android::details::TVecProductOperators"* undef, metadata !7132, metadata !DIExpression()), !dbg !7140
  call void @llvm.dbg.value(metadata %"class.android::details::TVec3"* undef, metadata !7135, metadata !DIExpression()), !dbg !7140
  call void @llvm.dbg.value(metadata i32 0, metadata !7137, metadata !DIExpression()), !dbg !7142
  call void @llvm.dbg.value(metadata i32 0, metadata !7137, metadata !DIExpression()), !dbg !7142
  %161 = fmul float %156, 0.000000e+00, !dbg !7157
  call void @llvm.dbg.value(metadata i32 1, metadata !7137, metadata !DIExpression()), !dbg !7142
  call void @llvm.dbg.value(metadata i32 1, metadata !7137, metadata !DIExpression()), !dbg !7142
  %162 = fmul float %158, 0.000000e+00, !dbg !7157
  call void @llvm.dbg.value(metadata i32 2, metadata !7137, metadata !DIExpression()), !dbg !7142
  call void @llvm.dbg.value(metadata i32 2, metadata !7137, metadata !DIExpression()), !dbg !7142
  %163 = fmul float %160, 0.000000e+00, !dbg !7157
  call void @llvm.dbg.value(metadata i32 3, metadata !7137, metadata !DIExpression()), !dbg !7142
  call void @llvm.dbg.value(metadata %"class.android::details::TVec3"* undef, metadata !7143, metadata !DIExpression()), !dbg !7151
  call void @llvm.dbg.value(metadata %"class.android::details::TVec3"* undef, metadata !7146, metadata !DIExpression()), !dbg !7151
  call void @llvm.dbg.value(metadata i32 0, metadata !7148, metadata !DIExpression()), !dbg !7153
  call void @llvm.dbg.value(metadata i32 0, metadata !7148, metadata !DIExpression()), !dbg !7153
  %164 = fadd float %153, %161, !dbg !7154
  call void @llvm.dbg.value(metadata i32 1, metadata !7148, metadata !DIExpression()), !dbg !7153
  call void @llvm.dbg.value(metadata i32 1, metadata !7148, metadata !DIExpression()), !dbg !7153
  %165 = fadd float %154, %162, !dbg !7154
  call void @llvm.dbg.value(metadata i32 2, metadata !7148, metadata !DIExpression()), !dbg !7153
  call void @llvm.dbg.value(metadata i32 2, metadata !7148, metadata !DIExpression()), !dbg !7153
  %166 = fadd float %155, %163, !dbg !7154
  call void @llvm.dbg.value(metadata i32 3, metadata !7148, metadata !DIExpression()), !dbg !7153
  call void @llvm.dbg.value(metadata i32 2, metadata !7109, metadata !DIExpression()), !dbg !7115
  call void @llvm.dbg.value(metadata i32 2, metadata !7109, metadata !DIExpression()), !dbg !7115
  %167 = load float, float* %16, align 4, !dbg !7116, !noalias !7119
  %168 = getelementptr inbounds %"class.android::details::TMat33", %"class.android::details::TMat33"* %2, i32 0, i32 0, i32 2, i32 0, i32 0, i32 1, !dbg !7116
  %169 = load float, float* %168, align 4, !dbg !7116, !noalias !7119
  %170 = getelementptr inbounds %"class.android::details::TMat33", %"class.android::details::TMat33"* %2, i32 0, i32 0, i32 2, i32 0, i32 0, i32 2, !dbg !7116
  %171 = load float, float* %170, align 4, !dbg !7116, !noalias !7119
  call void @llvm.dbg.value(metadata %"class.android::details::TVec3"* undef, metadata !7124, metadata !DIExpression()), !dbg !7130
  call void @llvm.dbg.value(metadata %"class.android::details::TVecProductOperators"* undef, metadata !7132, metadata !DIExpression()), !dbg !7140
  call void @llvm.dbg.value(metadata %"class.android::details::TVec3"* undef, metadata !7135, metadata !DIExpression()), !dbg !7140
  call void @llvm.dbg.value(metadata i32 0, metadata !7137, metadata !DIExpression()), !dbg !7142
  call void @llvm.dbg.value(metadata i32 0, metadata !7137, metadata !DIExpression()), !dbg !7142
  %172 = fmul float %167, 0.000000e+00, !dbg !7157
  call void @llvm.dbg.value(metadata i32 1, metadata !7137, metadata !DIExpression()), !dbg !7142
  call void @llvm.dbg.value(metadata i32 1, metadata !7137, metadata !DIExpression()), !dbg !7142
  %173 = fmul float %169, 0.000000e+00, !dbg !7157
  call void @llvm.dbg.value(metadata i32 2, metadata !7137, metadata !DIExpression()), !dbg !7142
  call void @llvm.dbg.value(metadata i32 2, metadata !7137, metadata !DIExpression()), !dbg !7142
  %174 = fmul float %171, 0.000000e+00, !dbg !7157
  call void @llvm.dbg.value(metadata i32 3, metadata !7137, metadata !DIExpression()), !dbg !7142
  call void @llvm.dbg.value(metadata %"class.android::details::TVec3"* undef, metadata !7143, metadata !DIExpression()), !dbg !7151
  call void @llvm.dbg.value(metadata %"class.android::details::TVec3"* undef, metadata !7146, metadata !DIExpression()), !dbg !7151
  call void @llvm.dbg.value(metadata i32 0, metadata !7148, metadata !DIExpression()), !dbg !7153
  call void @llvm.dbg.value(metadata i32 0, metadata !7148, metadata !DIExpression()), !dbg !7153
  %175 = fadd float %164, %172, !dbg !7154
  call void @llvm.dbg.value(metadata i32 1, metadata !7148, metadata !DIExpression()), !dbg !7153
  call void @llvm.dbg.value(metadata i32 1, metadata !7148, metadata !DIExpression()), !dbg !7153
  %176 = fadd float %165, %173, !dbg !7154
  call void @llvm.dbg.value(metadata i32 2, metadata !7148, metadata !DIExpression()), !dbg !7153
  call void @llvm.dbg.value(metadata i32 2, metadata !7148, metadata !DIExpression()), !dbg !7153
  %177 = fadd float %166, %174, !dbg !7154
  call void @llvm.dbg.value(metadata i32 3, metadata !7148, metadata !DIExpression()), !dbg !7153
  call void @llvm.dbg.value(metadata i32 3, metadata !7109, metadata !DIExpression()), !dbg !7115
  call void @llvm.dbg.value(metadata float %175, metadata !7108, metadata !DIExpression(DW_OP_LLVM_fragment, 0, 32)), !dbg !7113
  call void @llvm.dbg.value(metadata float %176, metadata !7108, metadata !DIExpression(DW_OP_LLVM_fragment, 32, 32)), !dbg !7113
  call void @llvm.dbg.value(metadata float %177, metadata !7108, metadata !DIExpression(DW_OP_LLVM_fragment, 64, 32)), !dbg !7113
  call void @llvm.dbg.value(metadata %"class.android::details::TVec3"* undef, metadata !7098, metadata !DIExpression(DW_OP_deref)), !dbg !7100
  call void @llvm.dbg.value(metadata %"class.android::details::TMat33"* %2, metadata !7102, metadata !DIExpression()), !dbg !7160
  call void @llvm.dbg.value(metadata %"class.android::details::TVec3"* undef, metadata !7107, metadata !DIExpression()), !dbg !7160
  call void @llvm.dbg.value(metadata i32 0, metadata !7109, metadata !DIExpression()), !dbg !7162
  call void @llvm.dbg.value(metadata i32 0, metadata !7109, metadata !DIExpression()), !dbg !7162
  call void @llvm.dbg.value(metadata %"class.android::details::TVec3"* undef, metadata !7124, metadata !DIExpression()), !dbg !7163
  call void @llvm.dbg.value(metadata %"class.android::details::TVecProductOperators"* undef, metadata !7132, metadata !DIExpression()), !dbg !7165
  call void @llvm.dbg.value(metadata %"class.android::details::TVec3"* undef, metadata !7135, metadata !DIExpression()), !dbg !7165
  call void @llvm.dbg.value(metadata i32 0, metadata !7137, metadata !DIExpression()), !dbg !7167
  call void @llvm.dbg.value(metadata i32 0, metadata !7137, metadata !DIExpression()), !dbg !7167
  %178 = fmul float %148, 0.000000e+00, !dbg !7168
  call void @llvm.dbg.value(metadata i32 1, metadata !7137, metadata !DIExpression()), !dbg !7167
  call void @llvm.dbg.value(metadata i32 1, metadata !7137, metadata !DIExpression()), !dbg !7167
  %179 = fmul float %150, 0.000000e+00, !dbg !7168
  call void @llvm.dbg.value(metadata i32 2, metadata !7137, metadata !DIExpression()), !dbg !7167
  call void @llvm.dbg.value(metadata i32 2, metadata !7137, metadata !DIExpression()), !dbg !7167
  %180 = fmul float %152, 0.000000e+00, !dbg !7168
  call void @llvm.dbg.value(metadata i32 3, metadata !7137, metadata !DIExpression()), !dbg !7167
  call void @llvm.dbg.value(metadata %"class.android::details::TVec3"* undef, metadata !7143, metadata !DIExpression()), !dbg !7169
  call void @llvm.dbg.value(metadata %"class.android::details::TVec3"* undef, metadata !7146, metadata !DIExpression()), !dbg !7169
  call void @llvm.dbg.value(metadata i32 0, metadata !7148, metadata !DIExpression()), !dbg !7171
  call void @llvm.dbg.value(metadata i32 0, metadata !7148, metadata !DIExpression()), !dbg !7171
  %181 = fadd float %178, 0.000000e+00, !dbg !7172
  call void @llvm.dbg.value(metadata i32 1, metadata !7148, metadata !DIExpression()), !dbg !7171
  call void @llvm.dbg.value(metadata i32 1, metadata !7148, metadata !DIExpression()), !dbg !7171
  %182 = fadd float %179, 0.000000e+00, !dbg !7172
  call void @llvm.dbg.value(metadata i32 2, metadata !7148, metadata !DIExpression()), !dbg !7171
  call void @llvm.dbg.value(metadata i32 2, metadata !7148, metadata !DIExpression()), !dbg !7171
  %183 = fadd float %180, 0.000000e+00, !dbg !7172
  call void @llvm.dbg.value(metadata i32 3, metadata !7148, metadata !DIExpression()), !dbg !7171
  call void @llvm.dbg.value(metadata i32 1, metadata !7109, metadata !DIExpression()), !dbg !7162
  call void @llvm.dbg.value(metadata i32 1, metadata !7109, metadata !DIExpression()), !dbg !7162
  call void @llvm.dbg.value(metadata %"class.android::details::TVec3"* undef, metadata !7124, metadata !DIExpression()), !dbg !7163
  call void @llvm.dbg.value(metadata %"class.android::details::TVecProductOperators"* undef, metadata !7132, metadata !DIExpression()), !dbg !7165
  call void @llvm.dbg.value(metadata %"class.android::details::TVec3"* undef, metadata !7135, metadata !DIExpression()), !dbg !7165
  call void @llvm.dbg.value(metadata i32 0, metadata !7137, metadata !DIExpression()), !dbg !7167
  call void @llvm.dbg.value(metadata i32 0, metadata !7137, metadata !DIExpression()), !dbg !7167
  call void @llvm.dbg.value(metadata i32 1, metadata !7137, metadata !DIExpression()), !dbg !7167
  call void @llvm.dbg.value(metadata i32 1, metadata !7137, metadata !DIExpression()), !dbg !7167
  call void @llvm.dbg.value(metadata i32 2, metadata !7137, metadata !DIExpression()), !dbg !7167
  call void @llvm.dbg.value(metadata i32 2, metadata !7137, metadata !DIExpression()), !dbg !7167
  call void @llvm.dbg.value(metadata i32 3, metadata !7137, metadata !DIExpression()), !dbg !7167
  call void @llvm.dbg.value(metadata %"class.android::details::TVec3"* undef, metadata !7143, metadata !DIExpression()), !dbg !7169
  call void @llvm.dbg.value(metadata %"class.android::details::TVec3"* undef, metadata !7146, metadata !DIExpression()), !dbg !7169
  call void @llvm.dbg.value(metadata i32 0, metadata !7148, metadata !DIExpression()), !dbg !7171
  call void @llvm.dbg.value(metadata i32 0, metadata !7148, metadata !DIExpression()), !dbg !7171
  %184 = fadd float %181, %156, !dbg !7172
  call void @llvm.dbg.value(metadata i32 1, metadata !7148, metadata !DIExpression()), !dbg !7171
  call void @llvm.dbg.value(metadata i32 1, metadata !7148, metadata !DIExpression()), !dbg !7171
  %185 = fadd float %182, %158, !dbg !7172
  call void @llvm.dbg.value(metadata i32 2, metadata !7148, metadata !DIExpression()), !dbg !7171
  call void @llvm.dbg.value(metadata i32 2, metadata !7148, metadata !DIExpression()), !dbg !7171
  %186 = fadd float %183, %160, !dbg !7172
  call void @llvm.dbg.value(metadata i32 3, metadata !7148, metadata !DIExpression()), !dbg !7171
  call void @llvm.dbg.value(metadata i32 2, metadata !7109, metadata !DIExpression()), !dbg !7162
  call void @llvm.dbg.value(metadata i32 2, metadata !7109, metadata !DIExpression()), !dbg !7162
  call void @llvm.dbg.value(metadata %"class.android::details::TVec3"* undef, metadata !7124, metadata !DIExpression()), !dbg !7163
  call void @llvm.dbg.value(metadata %"class.android::details::TVecProductOperators"* undef, metadata !7132, metadata !DIExpression()), !dbg !7165
  call void @llvm.dbg.value(metadata %"class.android::details::TVec3"* undef, metadata !7135, metadata !DIExpression()), !dbg !7165
  call void @llvm.dbg.value(metadata i32 0, metadata !7137, metadata !DIExpression()), !dbg !7167
  call void @llvm.dbg.value(metadata i32 0, metadata !7137, metadata !DIExpression()), !dbg !7167
  call void @llvm.dbg.value(metadata i32 1, metadata !7137, metadata !DIExpression()), !dbg !7167
  call void @llvm.dbg.value(metadata i32 1, metadata !7137, metadata !DIExpression()), !dbg !7167
  call void @llvm.dbg.value(metadata i32 2, metadata !7137, metadata !DIExpression()), !dbg !7167
  call void @llvm.dbg.value(metadata i32 2, metadata !7137, metadata !DIExpression()), !dbg !7167
  call void @llvm.dbg.value(metadata i32 3, metadata !7137, metadata !DIExpression()), !dbg !7167
  call void @llvm.dbg.value(metadata %"class.android::details::TVec3"* undef, metadata !7143, metadata !DIExpression()), !dbg !7169
  call void @llvm.dbg.value(metadata %"class.android::details::TVec3"* undef, metadata !7146, metadata !DIExpression()), !dbg !7169
  call void @llvm.dbg.value(metadata i32 0, metadata !7148, metadata !DIExpression()), !dbg !7171
  call void @llvm.dbg.value(metadata i32 0, metadata !7148, metadata !DIExpression()), !dbg !7171
  %187 = fadd float %184, %172, !dbg !7172
  call void @llvm.dbg.value(metadata i32 1, metadata !7148, metadata !DIExpression()), !dbg !7171
  call void @llvm.dbg.value(metadata i32 1, metadata !7148, metadata !DIExpression()), !dbg !7171
  %188 = fadd float %185, %173, !dbg !7172
  call void @llvm.dbg.value(metadata i32 2, metadata !7148, metadata !DIExpression()), !dbg !7171
  call void @llvm.dbg.value(metadata i32 2, metadata !7148, metadata !DIExpression()), !dbg !7171
  %189 = fadd float %186, %174, !dbg !7172
  call void @llvm.dbg.value(metadata i32 3, metadata !7148, metadata !DIExpression()), !dbg !7171
  call void @llvm.dbg.value(metadata i32 3, metadata !7109, metadata !DIExpression()), !dbg !7162
  call void @llvm.dbg.value(metadata float %187, metadata !7108, metadata !DIExpression(DW_OP_LLVM_fragment, 0, 32)), !dbg !7160
  call void @llvm.dbg.value(metadata float %188, metadata !7108, metadata !DIExpression(DW_OP_LLVM_fragment, 32, 32)), !dbg !7160
  call void @llvm.dbg.value(metadata float %189, metadata !7108, metadata !DIExpression(DW_OP_LLVM_fragment, 64, 32)), !dbg !7160
  call void @llvm.dbg.value(metadata %"class.android::details::TVec3"* undef, metadata !7099, metadata !DIExpression(DW_OP_deref)), !dbg !7100
  call void @llvm.dbg.value(metadata %"class.android::details::TMat33"* %2, metadata !7102, metadata !DIExpression()), !dbg !7173
  call void @llvm.dbg.value(metadata %"class.android::details::TVec3"* undef, metadata !7107, metadata !DIExpression()), !dbg !7173
  call void @llvm.dbg.value(metadata i32 0, metadata !7109, metadata !DIExpression()), !dbg !7175
  call void @llvm.dbg.value(metadata i32 0, metadata !7109, metadata !DIExpression()), !dbg !7175
  call void @llvm.dbg.value(metadata %"class.android::details::TVec3"* undef, metadata !7124, metadata !DIExpression()), !dbg !7176
  call void @llvm.dbg.value(metadata %"class.android::details::TVecProductOperators"* undef, metadata !7132, metadata !DIExpression()), !dbg !7178
  call void @llvm.dbg.value(metadata %"class.android::details::TVec3"* undef, metadata !7135, metadata !DIExpression()), !dbg !7178
  call void @llvm.dbg.value(metadata i32 0, metadata !7137, metadata !DIExpression()), !dbg !7180
  call void @llvm.dbg.value(metadata i32 0, metadata !7137, metadata !DIExpression()), !dbg !7180
  call void @llvm.dbg.value(metadata i32 1, metadata !7137, metadata !DIExpression()), !dbg !7180
  call void @llvm.dbg.value(metadata i32 1, metadata !7137, metadata !DIExpression()), !dbg !7180
  call void @llvm.dbg.value(metadata i32 2, metadata !7137, metadata !DIExpression()), !dbg !7180
  call void @llvm.dbg.value(metadata i32 2, metadata !7137, metadata !DIExpression()), !dbg !7180
  call void @llvm.dbg.value(metadata i32 3, metadata !7137, metadata !DIExpression()), !dbg !7180
  call void @llvm.dbg.value(metadata %"class.android::details::TVec3"* undef, metadata !7143, metadata !DIExpression()), !dbg !7181
  call void @llvm.dbg.value(metadata %"class.android::details::TVec3"* undef, metadata !7146, metadata !DIExpression()), !dbg !7181
  call void @llvm.dbg.value(metadata i32 0, metadata !7148, metadata !DIExpression()), !dbg !7183
  call void @llvm.dbg.value(metadata i32 0, metadata !7148, metadata !DIExpression()), !dbg !7183
  call void @llvm.dbg.value(metadata i32 1, metadata !7148, metadata !DIExpression()), !dbg !7183
  call void @llvm.dbg.value(metadata i32 1, metadata !7148, metadata !DIExpression()), !dbg !7183
  call void @llvm.dbg.value(metadata i32 2, metadata !7148, metadata !DIExpression()), !dbg !7183
  call void @llvm.dbg.value(metadata i32 2, metadata !7148, metadata !DIExpression()), !dbg !7183
  call void @llvm.dbg.value(metadata i32 3, metadata !7148, metadata !DIExpression()), !dbg !7183
  call void @llvm.dbg.value(metadata i32 1, metadata !7109, metadata !DIExpression()), !dbg !7175
  call void @llvm.dbg.value(metadata i32 1, metadata !7109, metadata !DIExpression()), !dbg !7175
  call void @llvm.dbg.value(metadata %"class.android::details::TVec3"* undef, metadata !7124, metadata !DIExpression()), !dbg !7176
  call void @llvm.dbg.value(metadata %"class.android::details::TVecProductOperators"* undef, metadata !7132, metadata !DIExpression()), !dbg !7178
  call void @llvm.dbg.value(metadata %"class.android::details::TVec3"* undef, metadata !7135, metadata !DIExpression()), !dbg !7178
  call void @llvm.dbg.value(metadata i32 0, metadata !7137, metadata !DIExpression()), !dbg !7180
  call void @llvm.dbg.value(metadata i32 0, metadata !7137, metadata !DIExpression()), !dbg !7180
  call void @llvm.dbg.value(metadata i32 1, metadata !7137, metadata !DIExpression()), !dbg !7180
  call void @llvm.dbg.value(metadata i32 1, metadata !7137, metadata !DIExpression()), !dbg !7180
  call void @llvm.dbg.value(metadata i32 2, metadata !7137, metadata !DIExpression()), !dbg !7180
  call void @llvm.dbg.value(metadata i32 2, metadata !7137, metadata !DIExpression()), !dbg !7180
  call void @llvm.dbg.value(metadata i32 3, metadata !7137, metadata !DIExpression()), !dbg !7180
  call void @llvm.dbg.value(metadata %"class.android::details::TVec3"* undef, metadata !7143, metadata !DIExpression()), !dbg !7181
  call void @llvm.dbg.value(metadata %"class.android::details::TVec3"* undef, metadata !7146, metadata !DIExpression()), !dbg !7181
  call void @llvm.dbg.value(metadata i32 0, metadata !7148, metadata !DIExpression()), !dbg !7183
  call void @llvm.dbg.value(metadata i32 0, metadata !7148, metadata !DIExpression()), !dbg !7183
  %190 = fadd float %181, %161, !dbg !7184
  call void @llvm.dbg.value(metadata i32 1, metadata !7148, metadata !DIExpression()), !dbg !7183
  call void @llvm.dbg.value(metadata i32 1, metadata !7148, metadata !DIExpression()), !dbg !7183
  %191 = fadd float %182, %162, !dbg !7184
  call void @llvm.dbg.value(metadata i32 2, metadata !7148, metadata !DIExpression()), !dbg !7183
  call void @llvm.dbg.value(metadata i32 2, metadata !7148, metadata !DIExpression()), !dbg !7183
  %192 = fadd float %183, %163, !dbg !7184
  call void @llvm.dbg.value(metadata i32 3, metadata !7148, metadata !DIExpression()), !dbg !7183
  call void @llvm.dbg.value(metadata i32 2, metadata !7109, metadata !DIExpression()), !dbg !7175
  call void @llvm.dbg.value(metadata i32 2, metadata !7109, metadata !DIExpression()), !dbg !7175
  call void @llvm.dbg.value(metadata %"class.android::details::TVec3"* undef, metadata !7124, metadata !DIExpression()), !dbg !7176
  call void @llvm.dbg.value(metadata %"class.android::details::TVecProductOperators"* undef, metadata !7132, metadata !DIExpression()), !dbg !7178
  call void @llvm.dbg.value(metadata %"class.android::details::TVec3"* undef, metadata !7135, metadata !DIExpression()), !dbg !7178
  call void @llvm.dbg.value(metadata i32 0, metadata !7137, metadata !DIExpression()), !dbg !7180
  call void @llvm.dbg.value(metadata i32 0, metadata !7137, metadata !DIExpression()), !dbg !7180
  call void @llvm.dbg.value(metadata i32 1, metadata !7137, metadata !DIExpression()), !dbg !7180
  call void @llvm.dbg.value(metadata i32 1, metadata !7137, metadata !DIExpression()), !dbg !7180
  call void @llvm.dbg.value(metadata i32 2, metadata !7137, metadata !DIExpression()), !dbg !7180
  call void @llvm.dbg.value(metadata i32 2, metadata !7137, metadata !DIExpression()), !dbg !7180
  call void @llvm.dbg.value(metadata i32 3, metadata !7137, metadata !DIExpression()), !dbg !7180
  call void @llvm.dbg.value(metadata %"class.android::details::TVec3"* undef, metadata !7143, metadata !DIExpression()), !dbg !7181
  call void @llvm.dbg.value(metadata %"class.android::details::TVec3"* undef, metadata !7146, metadata !DIExpression()), !dbg !7181
  call void @llvm.dbg.value(metadata i32 0, metadata !7148, metadata !DIExpression()), !dbg !7183
  call void @llvm.dbg.value(metadata i32 0, metadata !7148, metadata !DIExpression()), !dbg !7183
  %193 = fadd float %190, %167, !dbg !7184
  call void @llvm.dbg.value(metadata i32 1, metadata !7148, metadata !DIExpression()), !dbg !7183
  call void @llvm.dbg.value(metadata i32 1, metadata !7148, metadata !DIExpression()), !dbg !7183
  %194 = fadd float %191, %169, !dbg !7184
  call void @llvm.dbg.value(metadata i32 2, metadata !7148, metadata !DIExpression()), !dbg !7183
  call void @llvm.dbg.value(metadata i32 2, metadata !7148, metadata !DIExpression()), !dbg !7183
  %195 = fadd float %192, %171, !dbg !7184
  call void @llvm.dbg.value(metadata i32 3, metadata !7148, metadata !DIExpression()), !dbg !7183
  call void @llvm.dbg.value(metadata i32 3, metadata !7109, metadata !DIExpression()), !dbg !7175
  call void @llvm.dbg.value(metadata float %193, metadata !7108, metadata !DIExpression(DW_OP_LLVM_fragment, 0, 32)), !dbg !7173
  call void @llvm.dbg.value(metadata float %194, metadata !7108, metadata !DIExpression(DW_OP_LLVM_fragment, 32, 32)), !dbg !7173
  call void @llvm.dbg.value(metadata float %195, metadata !7108, metadata !DIExpression(DW_OP_LLVM_fragment, 64, 32)), !dbg !7173
  call void @llvm.dbg.value(metadata %"class.android::details::TVec3"* undef, metadata !7097, metadata !DIExpression(DW_OP_deref)), !dbg !7100
  call void @llvm.dbg.value(metadata %"class.android::details::TVec3"* undef, metadata !7185, metadata !DIExpression()), !dbg !7196
  call void @llvm.dbg.value(metadata %"class.android::details::TVec3"* undef, metadata !7190, metadata !DIExpression()), !dbg !7196
  call void @llvm.dbg.value(metadata float 0.000000e+00, metadata !7191, metadata !DIExpression()), !dbg !7196
  call void @llvm.dbg.value(metadata i32 0, metadata !7192, metadata !DIExpression()), !dbg !7198
  call void @llvm.dbg.value(metadata i32 0, metadata !7192, metadata !DIExpression()), !dbg !7198
  call void @llvm.dbg.value(metadata float 0.000000e+00, metadata !7191, metadata !DIExpression()), !dbg !7196
  call void @llvm.dbg.value(metadata float undef, metadata !7191, metadata !DIExpression()), !dbg !7196
  %196 = fadd float %175, 0.000000e+00, !dbg !7199
  call void @llvm.dbg.value(metadata i32 1, metadata !7192, metadata !DIExpression()), !dbg !7198
  call void @llvm.dbg.value(metadata float %196, metadata !7191, metadata !DIExpression()), !dbg !7196
  call void @llvm.dbg.value(metadata i32 1, metadata !7192, metadata !DIExpression()), !dbg !7198
  call void @llvm.dbg.value(metadata float %196, metadata !7191, metadata !DIExpression()), !dbg !7196
  call void @llvm.dbg.value(metadata float undef, metadata !7191, metadata !DIExpression()), !dbg !7196
  %197 = fadd float %196, %176, !dbg !7199
  call void @llvm.dbg.value(metadata i32 2, metadata !7192, metadata !DIExpression()), !dbg !7198
  call void @llvm.dbg.value(metadata float %197, metadata !7191, metadata !DIExpression()), !dbg !7196
  call void @llvm.dbg.value(metadata i32 2, metadata !7192, metadata !DIExpression()), !dbg !7198
  call void @llvm.dbg.value(metadata float %197, metadata !7191, metadata !DIExpression()), !dbg !7196
  call void @llvm.dbg.value(metadata float undef, metadata !7191, metadata !DIExpression()), !dbg !7196
  %198 = fadd float %197, %177, !dbg !7199
  call void @llvm.dbg.value(metadata i32 3, metadata !7192, metadata !DIExpression()), !dbg !7198
  call void @llvm.dbg.value(metadata float %198, metadata !7191, metadata !DIExpression()), !dbg !7196
  call void @llvm.dbg.value(metadata %"class.android::details::TVec2"* undef, metadata !7202, metadata !DIExpression()), !dbg !7208
  call void @llvm.dbg.value(metadata %"class.android::details::TVecProductOperators.8"* undef, metadata !7210, metadata !DIExpression()), !dbg !7218
  call void @llvm.dbg.value(metadata %"class.android::details::TVec2"* undef, metadata !7213, metadata !DIExpression()), !dbg !7218
  call void @llvm.dbg.value(metadata i32 0, metadata !7215, metadata !DIExpression()), !dbg !7220
  call void @llvm.dbg.value(metadata i32 0, metadata !7215, metadata !DIExpression()), !dbg !7220
  %199 = fdiv float %175, %198, !dbg !7221
  call void @llvm.dbg.value(metadata i32 1, metadata !7215, metadata !DIExpression()), !dbg !7220
  call void @llvm.dbg.value(metadata i32 1, metadata !7215, metadata !DIExpression()), !dbg !7220
  %200 = fdiv float %176, %198, !dbg !7221
  call void @llvm.dbg.value(metadata i32 2, metadata !7215, metadata !DIExpression()), !dbg !7220
  %201 = getelementptr inbounds %"class.android::ColorSpace", %"class.android::ColorSpace"* %0, i32 0, i32 7, i32 0, i32 0, i32 0, i32 0, i32 0, !dbg !7224
  store float %199, float* %201, align 4, !dbg !7224, !alias.scope !7225
  %202 = getelementptr inbounds %"class.android::ColorSpace", %"class.android::ColorSpace"* %0, i32 0, i32 7, i32 0, i32 0, i32 0, i32 0, i32 1, !dbg !7224
  store float %200, float* %202, align 4, !dbg !7224, !alias.scope !7225
  call void @llvm.dbg.value(metadata %"class.android::details::TVec3"* undef, metadata !7098, metadata !DIExpression(DW_OP_deref)), !dbg !7100
  call void @llvm.dbg.value(metadata %"class.android::details::TVec3"* undef, metadata !7185, metadata !DIExpression()), !dbg !7228
  call void @llvm.dbg.value(metadata %"class.android::details::TVec3"* undef, metadata !7190, metadata !DIExpression()), !dbg !7228
  call void @llvm.dbg.value(metadata float 0.000000e+00, metadata !7191, metadata !DIExpression()), !dbg !7228
  call void @llvm.dbg.value(metadata i32 0, metadata !7192, metadata !DIExpression()), !dbg !7230
  call void @llvm.dbg.value(metadata i32 0, metadata !7192, metadata !DIExpression()), !dbg !7230
  call void @llvm.dbg.value(metadata float 0.000000e+00, metadata !7191, metadata !DIExpression()), !dbg !7228
  call void @llvm.dbg.value(metadata float undef, metadata !7191, metadata !DIExpression()), !dbg !7228
  %203 = fadd float %187, 0.000000e+00, !dbg !7231
  call void @llvm.dbg.value(metadata i32 1, metadata !7192, metadata !DIExpression()), !dbg !7230
  call void @llvm.dbg.value(metadata float %203, metadata !7191, metadata !DIExpression()), !dbg !7228
  call void @llvm.dbg.value(metadata i32 1, metadata !7192, metadata !DIExpression()), !dbg !7230
  call void @llvm.dbg.value(metadata float %203, metadata !7191, metadata !DIExpression()), !dbg !7228
  call void @llvm.dbg.value(metadata float undef, metadata !7191, metadata !DIExpression()), !dbg !7228
  %204 = fadd float %203, %188, !dbg !7231
  call void @llvm.dbg.value(metadata i32 2, metadata !7192, metadata !DIExpression()), !dbg !7230
  call void @llvm.dbg.value(metadata float %204, metadata !7191, metadata !DIExpression()), !dbg !7228
  call void @llvm.dbg.value(metadata i32 2, metadata !7192, metadata !DIExpression()), !dbg !7230
  call void @llvm.dbg.value(metadata float %204, metadata !7191, metadata !DIExpression()), !dbg !7228
  call void @llvm.dbg.value(metadata float undef, metadata !7191, metadata !DIExpression()), !dbg !7228
  %205 = fadd float %204, %189, !dbg !7231
  call void @llvm.dbg.value(metadata i32 3, metadata !7192, metadata !DIExpression()), !dbg !7230
  call void @llvm.dbg.value(metadata float %205, metadata !7191, metadata !DIExpression()), !dbg !7228
  call void @llvm.dbg.value(metadata %"class.android::details::TVec2"* undef, metadata !7202, metadata !DIExpression()), !dbg !7232
  call void @llvm.dbg.value(metadata %"class.android::details::TVecProductOperators.8"* undef, metadata !7210, metadata !DIExpression()), !dbg !7234
  call void @llvm.dbg.value(metadata %"class.android::details::TVec2"* undef, metadata !7213, metadata !DIExpression()), !dbg !7234
  call void @llvm.dbg.value(metadata i32 0, metadata !7215, metadata !DIExpression()), !dbg !7236
  call void @llvm.dbg.value(metadata i32 0, metadata !7215, metadata !DIExpression()), !dbg !7236
  %206 = fdiv float %187, %205, !dbg !7237
  call void @llvm.dbg.value(metadata i32 1, metadata !7215, metadata !DIExpression()), !dbg !7236
  call void @llvm.dbg.value(metadata i32 1, metadata !7215, metadata !DIExpression()), !dbg !7236
  %207 = fdiv float %188, %205, !dbg !7237
  call void @llvm.dbg.value(metadata i32 2, metadata !7215, metadata !DIExpression()), !dbg !7236
  %208 = getelementptr inbounds %"class.android::ColorSpace", %"class.android::ColorSpace"* %0, i32 0, i32 7, i32 0, i32 1, i32 0, i32 0, i32 0, !dbg !7238
  store float %206, float* %208, align 4, !dbg !7238, !alias.scope !7239
  %209 = getelementptr inbounds %"class.android::ColorSpace", %"class.android::ColorSpace"* %0, i32 0, i32 7, i32 0, i32 1, i32 0, i32 0, i32 1, !dbg !7238
  store float %207, float* %209, align 4, !dbg !7238, !alias.scope !7239
  call void @llvm.dbg.value(metadata %"class.android::details::TVec3"* undef, metadata !7099, metadata !DIExpression(DW_OP_deref)), !dbg !7100
  call void @llvm.dbg.value(metadata %"class.android::details::TVec3"* undef, metadata !7185, metadata !DIExpression()), !dbg !7242
  call void @llvm.dbg.value(metadata %"class.android::details::TVec3"* undef, metadata !7190, metadata !DIExpression()), !dbg !7242
  call void @llvm.dbg.value(metadata float 0.000000e+00, metadata !7191, metadata !DIExpression()), !dbg !7242
  call void @llvm.dbg.value(metadata i32 0, metadata !7192, metadata !DIExpression()), !dbg !7244
  call void @llvm.dbg.value(metadata i32 0, metadata !7192, metadata !DIExpression()), !dbg !7244
  call void @llvm.dbg.value(metadata float 0.000000e+00, metadata !7191, metadata !DIExpression()), !dbg !7242
  call void @llvm.dbg.value(metadata float undef, metadata !7191, metadata !DIExpression()), !dbg !7242
  %210 = fadd float %193, 0.000000e+00, !dbg !7245
  call void @llvm.dbg.value(metadata i32 1, metadata !7192, metadata !DIExpression()), !dbg !7244
  call void @llvm.dbg.value(metadata float %210, metadata !7191, metadata !DIExpression()), !dbg !7242
  call void @llvm.dbg.value(metadata i32 1, metadata !7192, metadata !DIExpression()), !dbg !7244
  call void @llvm.dbg.value(metadata float %210, metadata !7191, metadata !DIExpression()), !dbg !7242
  call void @llvm.dbg.value(metadata float undef, metadata !7191, metadata !DIExpression()), !dbg !7242
  %211 = fadd float %210, %194, !dbg !7245
  call void @llvm.dbg.value(metadata i32 2, metadata !7192, metadata !DIExpression()), !dbg !7244
  call void @llvm.dbg.value(metadata float %211, metadata !7191, metadata !DIExpression()), !dbg !7242
  call void @llvm.dbg.value(metadata i32 2, metadata !7192, metadata !DIExpression()), !dbg !7244
  call void @llvm.dbg.value(metadata float %211, metadata !7191, metadata !DIExpression()), !dbg !7242
  call void @llvm.dbg.value(metadata float undef, metadata !7191, metadata !DIExpression()), !dbg !7242
  %212 = fadd float %211, %195, !dbg !7245
  call void @llvm.dbg.value(metadata i32 3, metadata !7192, metadata !DIExpression()), !dbg !7244
  call void @llvm.dbg.value(metadata float %212, metadata !7191, metadata !DIExpression()), !dbg !7242
  call void @llvm.dbg.value(metadata %"class.android::details::TVec2"* undef, metadata !7202, metadata !DIExpression()), !dbg !7246
  call void @llvm.dbg.value(metadata %"class.android::details::TVecProductOperators.8"* undef, metadata !7210, metadata !DIExpression()), !dbg !7248
  call void @llvm.dbg.value(metadata %"class.android::details::TVec2"* undef, metadata !7213, metadata !DIExpression()), !dbg !7248
  call void @llvm.dbg.value(metadata i32 0, metadata !7215, metadata !DIExpression()), !dbg !7250
  call void @llvm.dbg.value(metadata i32 0, metadata !7215, metadata !DIExpression()), !dbg !7250
  %213 = fdiv float %193, %212, !dbg !7251
  call void @llvm.dbg.value(metadata i32 1, metadata !7215, metadata !DIExpression()), !dbg !7250
  call void @llvm.dbg.value(metadata i32 1, metadata !7215, metadata !DIExpression()), !dbg !7250
  %214 = fdiv float %194, %212, !dbg !7251
  call void @llvm.dbg.value(metadata i32 2, metadata !7215, metadata !DIExpression()), !dbg !7250
  %215 = getelementptr inbounds %"class.android::ColorSpace", %"class.android::ColorSpace"* %0, i32 0, i32 7, i32 0, i32 2, i32 0, i32 0, i32 0, !dbg !7252
  store float %213, float* %215, align 4, !dbg !7252, !alias.scope !7253
  %216 = getelementptr inbounds %"class.android::ColorSpace", %"class.android::ColorSpace"* %0, i32 0, i32 7, i32 0, i32 2, i32 0, i32 0, i32 1, !dbg !7252
  store float %214, float* %216, align 4, !dbg !7252, !alias.scope !7253
  call void @llvm.dbg.value(metadata %"class.android::details::TMat33"* %2, metadata !7256, metadata !DIExpression()), !dbg !7262
  call void @llvm.dbg.value(metadata %"class.android::details::TVec3"* undef, metadata !7261, metadata !DIExpression(DW_OP_deref)), !dbg !7262
  call void @llvm.dbg.value(metadata %"class.android::details::TMat33"* %2, metadata !7102, metadata !DIExpression()), !dbg !7264
  call void @llvm.dbg.value(metadata %"class.android::details::TVec3"* undef, metadata !7107, metadata !DIExpression()), !dbg !7264
  call void @llvm.dbg.value(metadata i32 0, metadata !7109, metadata !DIExpression()), !dbg !7266
  call void @llvm.dbg.value(metadata i32 0, metadata !7109, metadata !DIExpression()), !dbg !7266
  %217 = load float, float* %12, align 4, !dbg !7267, !noalias !7268
  %218 = load float, float* %149, align 4, !dbg !7267, !noalias !7268
  %219 = load float, float* %151, align 4, !dbg !7267, !noalias !7268
  call void @llvm.dbg.value(metadata %"class.android::details::TVec3"* undef, metadata !7143, metadata !DIExpression()), !dbg !7273
  call void @llvm.dbg.value(metadata %"class.android::details::TVec3"* undef, metadata !7146, metadata !DIExpression()), !dbg !7273
  call void @llvm.dbg.value(metadata i32 0, metadata !7148, metadata !DIExpression()), !dbg !7275
  call void @llvm.dbg.value(metadata i32 0, metadata !7148, metadata !DIExpression()), !dbg !7275
  %220 = fadd float %217, 0.000000e+00, !dbg !7276
  call void @llvm.dbg.value(metadata i32 1, metadata !7148, metadata !DIExpression()), !dbg !7275
  call void @llvm.dbg.value(metadata i32 1, metadata !7148, metadata !DIExpression()), !dbg !7275
  %221 = fadd float %218, 0.000000e+00, !dbg !7276
  call void @llvm.dbg.value(metadata i32 2, metadata !7148, metadata !DIExpression()), !dbg !7275
  call void @llvm.dbg.value(metadata i32 2, metadata !7148, metadata !DIExpression()), !dbg !7275
  %222 = fadd float %219, 0.000000e+00, !dbg !7276
  call void @llvm.dbg.value(metadata i32 3, metadata !7148, metadata !DIExpression()), !dbg !7275
  call void @llvm.dbg.value(metadata i32 1, metadata !7109, metadata !DIExpression()), !dbg !7266
  call void @llvm.dbg.value(metadata i32 1, metadata !7109, metadata !DIExpression()), !dbg !7266
  %223 = load float, float* %14, align 4, !dbg !7267, !noalias !7268
  %224 = load float, float* %157, align 4, !dbg !7267, !noalias !7268
  %225 = load float, float* %159, align 4, !dbg !7267, !noalias !7268
  call void @llvm.dbg.value(metadata %"class.android::details::TVec3"* undef, metadata !7143, metadata !DIExpression()), !dbg !7273
  call void @llvm.dbg.value(metadata %"class.android::details::TVec3"* undef, metadata !7146, metadata !DIExpression()), !dbg !7273
  call void @llvm.dbg.value(metadata i32 0, metadata !7148, metadata !DIExpression()), !dbg !7275
  call void @llvm.dbg.value(metadata i32 0, metadata !7148, metadata !DIExpression()), !dbg !7275
  %226 = fadd float %220, %223, !dbg !7276
  call void @llvm.dbg.value(metadata i32 1, metadata !7148, metadata !DIExpression()), !dbg !7275
  call void @llvm.dbg.value(metadata i32 1, metadata !7148, metadata !DIExpression()), !dbg !7275
  %227 = fadd float %221, %224, !dbg !7276
  call void @llvm.dbg.value(metadata i32 2, metadata !7148, metadata !DIExpression()), !dbg !7275
  call void @llvm.dbg.value(metadata i32 2, metadata !7148, metadata !DIExpression()), !dbg !7275
  %228 = fadd float %222, %225, !dbg !7276
  call void @llvm.dbg.value(metadata i32 3, metadata !7148, metadata !DIExpression()), !dbg !7275
  call void @llvm.dbg.value(metadata i32 2, metadata !7109, metadata !DIExpression()), !dbg !7266
  call void @llvm.dbg.value(metadata i32 2, metadata !7109, metadata !DIExpression()), !dbg !7266
  %229 = load float, float* %16, align 4, !dbg !7267, !noalias !7268
  %230 = load float, float* %168, align 4, !dbg !7267, !noalias !7268
  %231 = load float, float* %170, align 4, !dbg !7267, !noalias !7268
  call void @llvm.dbg.value(metadata %"class.android::details::TVec3"* undef, metadata !7143, metadata !DIExpression()), !dbg !7273
  call void @llvm.dbg.value(metadata %"class.android::details::TVec3"* undef, metadata !7146, metadata !DIExpression()), !dbg !7273
  call void @llvm.dbg.value(metadata i32 0, metadata !7148, metadata !DIExpression()), !dbg !7275
  call void @llvm.dbg.value(metadata i32 0, metadata !7148, metadata !DIExpression()), !dbg !7275
  %232 = fadd float %226, %229, !dbg !7276
  call void @llvm.dbg.value(metadata i32 1, metadata !7148, metadata !DIExpression()), !dbg !7275
  call void @llvm.dbg.value(metadata i32 1, metadata !7148, metadata !DIExpression()), !dbg !7275
  %233 = fadd float %227, %230, !dbg !7276
  call void @llvm.dbg.value(metadata i32 2, metadata !7148, metadata !DIExpression()), !dbg !7275
  call void @llvm.dbg.value(metadata i32 2, metadata !7148, metadata !DIExpression()), !dbg !7275
  %234 = fadd float %228, %231, !dbg !7276
  call void @llvm.dbg.value(metadata i32 3, metadata !7148, metadata !DIExpression()), !dbg !7275
  call void @llvm.dbg.value(metadata i32 3, metadata !7109, metadata !DIExpression()), !dbg !7266
  call void @llvm.dbg.value(metadata float %232, metadata !7108, metadata !DIExpression(DW_OP_LLVM_fragment, 0, 32)), !dbg !7264
  call void @llvm.dbg.value(metadata float %233, metadata !7108, metadata !DIExpression(DW_OP_LLVM_fragment, 32, 32)), !dbg !7264
  call void @llvm.dbg.value(metadata float %234, metadata !7108, metadata !DIExpression(DW_OP_LLVM_fragment, 64, 32)), !dbg !7264
  call void @llvm.dbg.value(metadata %"class.android::details::TVec3"* undef, metadata !7261, metadata !DIExpression(DW_OP_deref)), !dbg !7262
  call void @llvm.dbg.value(metadata %"class.android::details::TVec3"* undef, metadata !7185, metadata !DIExpression()), !dbg !7277
  call void @llvm.dbg.value(metadata %"class.android::details::TVec3"* undef, metadata !7190, metadata !DIExpression()), !dbg !7277
  call void @llvm.dbg.value(metadata float 0.000000e+00, metadata !7191, metadata !DIExpression()), !dbg !7277
  call void @llvm.dbg.value(metadata i32 0, metadata !7192, metadata !DIExpression()), !dbg !7279
  call void @llvm.dbg.value(metadata i32 0, metadata !7192, metadata !DIExpression()), !dbg !7279
  call void @llvm.dbg.value(metadata float 0.000000e+00, metadata !7191, metadata !DIExpression()), !dbg !7277
  call void @llvm.dbg.value(metadata float undef, metadata !7191, metadata !DIExpression()), !dbg !7277
  %235 = fadd float %232, 0.000000e+00, !dbg !7280
  call void @llvm.dbg.value(metadata i32 1, metadata !7192, metadata !DIExpression()), !dbg !7279
  call void @llvm.dbg.value(metadata float %235, metadata !7191, metadata !DIExpression()), !dbg !7277
  call void @llvm.dbg.value(metadata i32 1, metadata !7192, metadata !DIExpression()), !dbg !7279
  call void @llvm.dbg.value(metadata float %235, metadata !7191, metadata !DIExpression()), !dbg !7277
  call void @llvm.dbg.value(metadata float undef, metadata !7191, metadata !DIExpression()), !dbg !7277
  %236 = fadd float %235, %233, !dbg !7280
  call void @llvm.dbg.value(metadata i32 2, metadata !7192, metadata !DIExpression()), !dbg !7279
  call void @llvm.dbg.value(metadata float %236, metadata !7191, metadata !DIExpression()), !dbg !7277
  call void @llvm.dbg.value(metadata i32 2, metadata !7192, metadata !DIExpression()), !dbg !7279
  call void @llvm.dbg.value(metadata float %236, metadata !7191, metadata !DIExpression()), !dbg !7277
  call void @llvm.dbg.value(metadata float undef, metadata !7191, metadata !DIExpression()), !dbg !7277
  %237 = fadd float %236, %234, !dbg !7280
  call void @llvm.dbg.value(metadata i32 3, metadata !7192, metadata !DIExpression()), !dbg !7279
  call void @llvm.dbg.value(metadata float %237, metadata !7191, metadata !DIExpression()), !dbg !7277
  call void @llvm.dbg.value(metadata %"class.android::details::TVec2"* undef, metadata !7202, metadata !DIExpression()), !dbg !7281
  call void @llvm.dbg.value(metadata %"class.android::details::TVecProductOperators.8"* undef, metadata !7210, metadata !DIExpression()), !dbg !7283
  call void @llvm.dbg.value(metadata %"class.android::details::TVec2"* undef, metadata !7213, metadata !DIExpression()), !dbg !7283
  call void @llvm.dbg.value(metadata i32 0, metadata !7215, metadata !DIExpression()), !dbg !7285
  call void @llvm.dbg.value(metadata i32 0, metadata !7215, metadata !DIExpression()), !dbg !7285
  %238 = fdiv float %232, %237, !dbg !7286
  call void @llvm.dbg.value(metadata i32 1, metadata !7215, metadata !DIExpression()), !dbg !7285
  call void @llvm.dbg.value(metadata i32 1, metadata !7215, metadata !DIExpression()), !dbg !7285
  %239 = fdiv float %233, %237, !dbg !7286
  call void @llvm.dbg.value(metadata i32 2, metadata !7215, metadata !DIExpression()), !dbg !7285
  %240 = getelementptr inbounds %"class.android::ColorSpace", %"class.android::ColorSpace"* %0, i32 0, i32 8, i32 0, i32 0, i32 0, !dbg !7287
  store float %238, float* %240, align 4, !dbg !7287, !alias.scope !7288
  %241 = getelementptr inbounds %"class.android::ColorSpace", %"class.android::ColorSpace"* %0, i32 0, i32 8, i32 0, i32 0, i32 1, !dbg !7287
  store float %239, float* %241, align 4, !dbg !7287, !alias.scope !7288
  ret %"class.android::ColorSpace"* %0, !dbg !7291
}

; Function Attrs: nounwind readnone speculatable
declare void @llvm.dbg.declare(metadata, metadata, metadata) #1

declare %"class.std::__1::basic_string"* @_ZNSt3__112basic_stringIcNS_11char_traitsIcEENS_9allocatorIcEEEC1ERKS5_(%"class.std::__1::basic_string"* returned, %"class.std::__1::basic_string"* dereferenceable(12)) unnamed_addr #2

; Function Attrs: argmemonly nounwind
declare void @llvm.memcpy.p0i8.p0i8.i32(i8* nocapture writeonly, i8* nocapture readonly, i32, i1 immarg) #3

; Function Attrs: nounwind sspstrong uwtable
define %"class.android::ColorSpace"* @_ZN7android10ColorSpaceC2ERKNSt3__112basic_stringIcNS1_11char_traitsIcEENS1_9allocatorIcEEEERKNS_7details6TMat33IfEENS0_18TransferParametersENS1_8functionIFffEEE(%"class.android::ColorSpace"* returned, %"class.std::__1::basic_string"* dereferenceable(12), %"class.android::details::TMat33"* readonly dereferenceable(36), [7 x i32], %"class.std::__1::function"*) unnamed_addr #0 align 2 !dbg !7292 {
  %6 = extractvalue [7 x i32] %3, 0
  call void @llvm.dbg.value(metadata i32 %6, metadata !7297, metadata !DIExpression(DW_OP_LLVM_fragment, 0, 32)), !dbg !7299
  %7 = extractvalue [7 x i32] %3, 1
  call void @llvm.dbg.value(metadata i32 %7, metadata !7297, metadata !DIExpression(DW_OP_LLVM_fragment, 32, 32)), !dbg !7299
  %8 = extractvalue [7 x i32] %3, 2
  call void @llvm.dbg.value(metadata i32 %8, metadata !7297, metadata !DIExpression(DW_OP_LLVM_fragment, 64, 32)), !dbg !7299
  %9 = extractvalue [7 x i32] %3, 3
  call void @llvm.dbg.value(metadata i32 %9, metadata !7297, metadata !DIExpression(DW_OP_LLVM_fragment, 96, 32)), !dbg !7299
  %10 = extractvalue [7 x i32] %3, 4
  call void @llvm.dbg.value(metadata i32 %10, metadata !7297, metadata !DIExpression(DW_OP_LLVM_fragment, 128, 32)), !dbg !7299
  %11 = extractvalue [7 x i32] %3, 5
  call void @llvm.dbg.value(metadata i32 %11, metadata !7297, metadata !DIExpression(DW_OP_LLVM_fragment, 160, 32)), !dbg !7299
  %12 = extractvalue [7 x i32] %3, 6
  call void @llvm.dbg.value(metadata i32 %12, metadata !7297, metadata !DIExpression(DW_OP_LLVM_fragment, 192, 32)), !dbg !7299
  call void @llvm.dbg.value(metadata %"class.android::ColorSpace"* %0, metadata !7294, metadata !DIExpression()), !dbg !7299
  call void @llvm.dbg.value(metadata %"class.std::__1::basic_string"* %1, metadata !7295, metadata !DIExpression()), !dbg !7299
  call void @llvm.dbg.value(metadata %"class.android::details::TMat33"* %2, metadata !7296, metadata !DIExpression()), !dbg !7299
  call void @llvm.dbg.declare(metadata %"class.std::__1::function"* %4, metadata !7298, metadata !DIExpression()), !dbg !7300
  %13 = getelementptr inbounds %"class.android::ColorSpace", %"class.android::ColorSpace"* %0, i32 0, i32 0, !dbg !7301
  %14 = tail call %"class.std::__1::basic_string"* @_ZNSt3__112basic_stringIcNS_11char_traitsIcEENS_9allocatorIcEEEC1ERKS5_(%"class.std::__1::basic_string"* %13, %"class.std::__1::basic_string"* nonnull dereferenceable(12) %1) #13, !dbg !7301
  %15 = getelementptr inbounds %"class.android::ColorSpace", %"class.android::ColorSpace"* %0, i32 0, i32 1, !dbg !7302
  %16 = bitcast %"class.android::details::TMat33"* %15 to i8*, !dbg !7302
  %17 = bitcast %"class.android::details::TMat33"* %2 to i8*, !dbg !7302
  tail call void @llvm.memcpy.p0i8.p0i8.i32(i8* nonnull align 4 %16, i8* nonnull align 4 %17, i32 36, i1 false), !dbg !7302
  call void @llvm.dbg.value(metadata %"class.android::details::TMat33"* %2, metadata !6841, metadata !DIExpression()), !dbg !7303
  call void @llvm.dbg.value(metadata %"class.android::details::TMat33"* %2, metadata !6846, metadata !DIExpression()), !dbg !7305
  call void @llvm.dbg.value(metadata %"class.android::details::TMat33"* %2, metadata !6851, metadata !DIExpression()), !dbg !7307
  call void @llvm.dbg.declare(metadata %"class.android::ColorSpace"* %0, metadata !6854, metadata !DIExpression(DW_OP_plus_uconst, 48)), !dbg !7309
  call void @llvm.dbg.value(metadata %"class.android::details::TMat33"* %2, metadata !6879, metadata !DIExpression()), !dbg !7310
  call void @llvm.dbg.value(metadata i32 0, metadata !6882, metadata !DIExpression()), !dbg !7310
  %18 = getelementptr inbounds %"class.android::details::TMat33", %"class.android::details::TMat33"* %2, i32 0, i32 0, i32 0, i32 0, i32 0, i32 0, !dbg !7312
  %19 = load float, float* %18, align 4, !dbg !7313, !noalias !7314
  call void @llvm.dbg.value(metadata float %19, metadata !6855, metadata !DIExpression()), !dbg !7307
  call void @llvm.dbg.value(metadata %"class.android::details::TMat33"* %2, metadata !6879, metadata !DIExpression(DW_OP_plus_uconst, 12, DW_OP_stack_value)), !dbg !7321
  call void @llvm.dbg.value(metadata i32 0, metadata !6882, metadata !DIExpression()), !dbg !7321
  %20 = getelementptr inbounds %"class.android::details::TMat33", %"class.android::details::TMat33"* %2, i32 0, i32 0, i32 1, i32 0, i32 0, i32 0, !dbg !7323
  %21 = load float, float* %20, align 4, !dbg !7324, !noalias !7314
  call void @llvm.dbg.value(metadata float %21, metadata !6858, metadata !DIExpression()), !dbg !7307
  call void @llvm.dbg.value(metadata %"class.android::details::TMat33"* %2, metadata !6879, metadata !DIExpression(DW_OP_plus_uconst, 24, DW_OP_stack_value)), !dbg !7325
  call void @llvm.dbg.value(metadata i32 0, metadata !6882, metadata !DIExpression()), !dbg !7325
  %22 = getelementptr inbounds %"class.android::details::TMat33", %"class.android::details::TMat33"* %2, i32 0, i32 0, i32 2, i32 0, i32 0, i32 0, !dbg !7327
  %23 = load float, float* %22, align 4, !dbg !7328, !noalias !7314
  call void @llvm.dbg.value(metadata float %23, metadata !6859, metadata !DIExpression()), !dbg !7307
  call void @llvm.dbg.value(metadata %"class.android::details::TMat33"* %2, metadata !6879, metadata !DIExpression()), !dbg !7329
  call void @llvm.dbg.value(metadata i32 1, metadata !6882, metadata !DIExpression()), !dbg !7329
  %24 = getelementptr inbounds float, float* %18, i32 1, !dbg !7331
  %25 = load float, float* %24, align 4, !dbg !7332, !noalias !7314
  call void @llvm.dbg.value(metadata float %25, metadata !6860, metadata !DIExpression()), !dbg !7307
  call void @llvm.dbg.value(metadata %"class.android::details::TMat33"* %2, metadata !6879, metadata !DIExpression(DW_OP_plus_uconst, 12, DW_OP_stack_value)), !dbg !7333
  call void @llvm.dbg.value(metadata i32 1, metadata !6882, metadata !DIExpression()), !dbg !7333
  %26 = getelementptr inbounds float, float* %20, i32 1, !dbg !7335
  %27 = load float, float* %26, align 4, !dbg !7336, !noalias !7314
  call void @llvm.dbg.value(metadata float %27, metadata !6861, metadata !DIExpression()), !dbg !7307
  call void @llvm.dbg.value(metadata %"class.android::details::TMat33"* %2, metadata !6879, metadata !DIExpression(DW_OP_plus_uconst, 24, DW_OP_stack_value)), !dbg !7337
  call void @llvm.dbg.value(metadata i32 1, metadata !6882, metadata !DIExpression()), !dbg !7337
  %28 = getelementptr inbounds float, float* %22, i32 1, !dbg !7339
  %29 = load float, float* %28, align 4, !dbg !7340, !noalias !7314
  call void @llvm.dbg.value(metadata float %29, metadata !6862, metadata !DIExpression()), !dbg !7307
  call void @llvm.dbg.value(metadata %"class.android::details::TMat33"* %2, metadata !6879, metadata !DIExpression()), !dbg !7341
  call void @llvm.dbg.value(metadata i32 2, metadata !6882, metadata !DIExpression()), !dbg !7341
  %30 = getelementptr inbounds float, float* %18, i32 2, !dbg !7343
  %31 = load float, float* %30, align 4, !dbg !7344, !noalias !7314
  call void @llvm.dbg.value(metadata float %31, metadata !6863, metadata !DIExpression()), !dbg !7307
  call void @llvm.dbg.value(metadata %"class.android::details::TMat33"* %2, metadata !6879, metadata !DIExpression(DW_OP_plus_uconst, 12, DW_OP_stack_value)), !dbg !7345
  call void @llvm.dbg.value(metadata i32 2, metadata !6882, metadata !DIExpression()), !dbg !7345
  %32 = getelementptr inbounds float, float* %20, i32 2, !dbg !7347
  %33 = load float, float* %32, align 4, !dbg !7348, !noalias !7314
  call void @llvm.dbg.value(metadata float %33, metadata !6864, metadata !DIExpression()), !dbg !7307
  call void @llvm.dbg.value(metadata %"class.android::details::TMat33"* %2, metadata !6879, metadata !DIExpression(DW_OP_plus_uconst, 24, DW_OP_stack_value)), !dbg !7349
  call void @llvm.dbg.value(metadata i32 2, metadata !6882, metadata !DIExpression()), !dbg !7349
  %34 = getelementptr inbounds float, float* %22, i32 2, !dbg !7351
  %35 = load float, float* %34, align 4, !dbg !7352, !noalias !7314
  call void @llvm.dbg.value(metadata float %35, metadata !6865, metadata !DIExpression()), !dbg !7307
  %36 = fmul float %27, %35, !dbg !7353
  %37 = fmul float %29, %33, !dbg !7354
  %38 = fsub float %36, %37, !dbg !7355
  call void @llvm.dbg.value(metadata float %38, metadata !6866, metadata !DIExpression()), !dbg !7307
  %39 = fmul float %29, %31, !dbg !7356
  %40 = fmul float %25, %35, !dbg !7357
  %41 = fsub float %39, %40, !dbg !7358
  call void @llvm.dbg.value(metadata float %41, metadata !6867, metadata !DIExpression()), !dbg !7307
  %42 = fmul float %25, %33, !dbg !7359
  %43 = fmul float %27, %31, !dbg !7360
  %44 = fsub float %42, %43, !dbg !7361
  call void @llvm.dbg.value(metadata float %44, metadata !6868, metadata !DIExpression()), !dbg !7307
  call void @llvm.dbg.value(metadata %"class.android::ColorSpace"* %0, metadata !6936, metadata !DIExpression(DW_OP_plus_uconst, 48, DW_OP_stack_value)), !dbg !7362
  call void @llvm.dbg.value(metadata i32 0, metadata !6939, metadata !DIExpression()), !dbg !7362
  %45 = getelementptr inbounds %"class.android::ColorSpace", %"class.android::ColorSpace"* %0, i32 0, i32 2, i32 0, i32 0, i32 0, i32 0, i32 0, !dbg !7364
  call void @llvm.dbg.value(metadata %"class.android::ColorSpace"* %0, metadata !6936, metadata !DIExpression(DW_OP_plus_uconst, 48, DW_OP_stack_value)), !dbg !7365
  call void @llvm.dbg.value(metadata i32 1, metadata !6939, metadata !DIExpression()), !dbg !7365
  %46 = getelementptr inbounds float, float* %45, i32 1, !dbg !7367
  call void @llvm.dbg.value(metadata %"class.android::ColorSpace"* %0, metadata !6936, metadata !DIExpression(DW_OP_plus_uconst, 48, DW_OP_stack_value)), !dbg !7368
  call void @llvm.dbg.value(metadata i32 2, metadata !6939, metadata !DIExpression()), !dbg !7368
  %47 = getelementptr inbounds float, float* %45, i32 2, !dbg !7370
  %48 = fmul float %23, %33, !dbg !7371
  %49 = fmul float %21, %35, !dbg !7372
  %50 = fsub float %48, %49, !dbg !7373
  call void @llvm.dbg.value(metadata %"class.android::ColorSpace"* %0, metadata !6936, metadata !DIExpression(DW_OP_plus_uconst, 48, DW_OP_plus_uconst, 12, DW_OP_stack_value)), !dbg !7374
  call void @llvm.dbg.value(metadata i32 0, metadata !6939, metadata !DIExpression()), !dbg !7374
  %51 = getelementptr inbounds %"class.android::ColorSpace", %"class.android::ColorSpace"* %0, i32 0, i32 2, i32 0, i32 1, i32 0, i32 0, i32 0, !dbg !7376
  %52 = fmul float %19, %35, !dbg !7377
  %53 = fmul float %23, %31, !dbg !7378
  %54 = fsub float %52, %53, !dbg !7379
  call void @llvm.dbg.value(metadata %"class.android::ColorSpace"* %0, metadata !6936, metadata !DIExpression(DW_OP_plus_uconst, 48, DW_OP_plus_uconst, 12, DW_OP_stack_value)), !dbg !7380
  call void @llvm.dbg.value(metadata i32 1, metadata !6939, metadata !DIExpression()), !dbg !7380
  %55 = getelementptr inbounds float, float* %51, i32 1, !dbg !7382
  %56 = fmul float %21, %31, !dbg !7383
  %57 = fmul float %19, %33, !dbg !7384
  %58 = fsub float %56, %57, !dbg !7385
  call void @llvm.dbg.value(metadata %"class.android::ColorSpace"* %0, metadata !6936, metadata !DIExpression(DW_OP_plus_uconst, 48, DW_OP_plus_uconst, 12, DW_OP_stack_value)), !dbg !7386
  call void @llvm.dbg.value(metadata i32 2, metadata !6939, metadata !DIExpression()), !dbg !7386
  %59 = getelementptr inbounds float, float* %51, i32 2, !dbg !7388
  %60 = fmul float %21, %29, !dbg !7389
  %61 = fmul float %23, %27, !dbg !7390
  %62 = fsub float %60, %61, !dbg !7391
  call void @llvm.dbg.value(metadata %"class.android::ColorSpace"* %0, metadata !6936, metadata !DIExpression(DW_OP_plus_uconst, 48, DW_OP_plus_uconst, 24, DW_OP_stack_value)), !dbg !7392
  call void @llvm.dbg.value(metadata i32 0, metadata !6939, metadata !DIExpression()), !dbg !7392
  %63 = getelementptr inbounds %"class.android::ColorSpace", %"class.android::ColorSpace"* %0, i32 0, i32 2, i32 0, i32 2, i32 0, i32 0, i32 0, !dbg !7394
  %64 = fmul float %23, %25, !dbg !7395
  %65 = fmul float %19, %29, !dbg !7396
  %66 = fsub float %64, %65, !dbg !7397
  call void @llvm.dbg.value(metadata %"class.android::ColorSpace"* %0, metadata !6936, metadata !DIExpression(DW_OP_plus_uconst, 48, DW_OP_plus_uconst, 24, DW_OP_stack_value)), !dbg !7398
  call void @llvm.dbg.value(metadata i32 1, metadata !6939, metadata !DIExpression()), !dbg !7398
  %67 = getelementptr inbounds float, float* %63, i32 1, !dbg !7400
  %68 = fmul float %19, %27, !dbg !7401
  %69 = fmul float %21, %25, !dbg !7402
  %70 = fsub float %68, %69, !dbg !7403
  call void @llvm.dbg.value(metadata %"class.android::ColorSpace"* %0, metadata !6936, metadata !DIExpression(DW_OP_plus_uconst, 48, DW_OP_plus_uconst, 24, DW_OP_stack_value)), !dbg !7404
  call void @llvm.dbg.value(metadata i32 2, metadata !6939, metadata !DIExpression()), !dbg !7404
  %71 = getelementptr inbounds float, float* %63, i32 2, !dbg !7406
  %72 = fmul float %19, %38, !dbg !7407
  %73 = fmul float %21, %41, !dbg !7408
  %74 = fadd float %72, %73, !dbg !7409
  %75 = fmul float %23, %44, !dbg !7410
  %76 = fadd float %75, %74, !dbg !7411
  call void @llvm.dbg.value(metadata float %76, metadata !6869, metadata !DIExpression()), !dbg !7307
  call void @llvm.dbg.value(metadata i32 0, metadata !6870, metadata !DIExpression()), !dbg !7412
  call void @llvm.dbg.value(metadata i32 0, metadata !6870, metadata !DIExpression()), !dbg !7412
  call void @llvm.dbg.value(metadata i32 0, metadata !6872, metadata !DIExpression()), !dbg !7413
  call void @llvm.dbg.value(metadata i32 0, metadata !6872, metadata !DIExpression()), !dbg !7413
  call void @llvm.dbg.value(metadata i32 0, metadata !6939, metadata !DIExpression()), !dbg !7414
  %77 = fdiv float %38, %76, !dbg !7416
  store float %77, float* %45, align 4, !dbg !7416, !alias.scope !7314
  call void @llvm.dbg.value(metadata i32 1, metadata !6872, metadata !DIExpression()), !dbg !7413
  call void @llvm.dbg.value(metadata i32 1, metadata !6872, metadata !DIExpression()), !dbg !7413
  call void @llvm.dbg.value(metadata i32 1, metadata !6939, metadata !DIExpression()), !dbg !7414
  %78 = fdiv float %41, %76, !dbg !7416
  store float %78, float* %46, align 4, !dbg !7416, !alias.scope !7314
  call void @llvm.dbg.value(metadata i32 2, metadata !6872, metadata !DIExpression()), !dbg !7413
  call void @llvm.dbg.value(metadata i32 2, metadata !6872, metadata !DIExpression()), !dbg !7413
  call void @llvm.dbg.value(metadata i32 2, metadata !6939, metadata !DIExpression()), !dbg !7414
  %79 = fdiv float %44, %76, !dbg !7416
  store float %79, float* %47, align 4, !dbg !7416, !alias.scope !7314
  call void @llvm.dbg.value(metadata i32 3, metadata !6872, metadata !DIExpression()), !dbg !7413
  call void @llvm.dbg.value(metadata i32 1, metadata !6870, metadata !DIExpression()), !dbg !7412
  call void @llvm.dbg.value(metadata i32 1, metadata !6870, metadata !DIExpression()), !dbg !7412
  call void @llvm.dbg.value(metadata i32 0, metadata !6872, metadata !DIExpression()), !dbg !7413
  call void @llvm.dbg.value(metadata i32 0, metadata !6872, metadata !DIExpression()), !dbg !7413
  call void @llvm.dbg.value(metadata i32 0, metadata !6939, metadata !DIExpression()), !dbg !7414
  %80 = fdiv float %50, %76, !dbg !7416
  store float %80, float* %51, align 4, !dbg !7416, !alias.scope !7314
  call void @llvm.dbg.value(metadata i32 1, metadata !6872, metadata !DIExpression()), !dbg !7413
  call void @llvm.dbg.value(metadata i32 1, metadata !6872, metadata !DIExpression()), !dbg !7413
  call void @llvm.dbg.value(metadata i32 1, metadata !6939, metadata !DIExpression()), !dbg !7414
  %81 = fdiv float %54, %76, !dbg !7416
  store float %81, float* %55, align 4, !dbg !7416, !alias.scope !7314
  call void @llvm.dbg.value(metadata i32 2, metadata !6872, metadata !DIExpression()), !dbg !7413
  call void @llvm.dbg.value(metadata i32 2, metadata !6872, metadata !DIExpression()), !dbg !7413
  call void @llvm.dbg.value(metadata i32 2, metadata !6939, metadata !DIExpression()), !dbg !7414
  %82 = fdiv float %58, %76, !dbg !7416
  store float %82, float* %59, align 4, !dbg !7416, !alias.scope !7314
  call void @llvm.dbg.value(metadata i32 3, metadata !6872, metadata !DIExpression()), !dbg !7413
  call void @llvm.dbg.value(metadata i32 2, metadata !6870, metadata !DIExpression()), !dbg !7412
  call void @llvm.dbg.value(metadata i32 2, metadata !6870, metadata !DIExpression()), !dbg !7412
  call void @llvm.dbg.value(metadata i32 0, metadata !6872, metadata !DIExpression()), !dbg !7413
  call void @llvm.dbg.value(metadata i32 0, metadata !6872, metadata !DIExpression()), !dbg !7413
  call void @llvm.dbg.value(metadata i32 0, metadata !6939, metadata !DIExpression()), !dbg !7414
  %83 = fdiv float %62, %76, !dbg !7416
  store float %83, float* %63, align 4, !dbg !7416, !alias.scope !7314
  call void @llvm.dbg.value(metadata i32 1, metadata !6872, metadata !DIExpression()), !dbg !7413
  call void @llvm.dbg.value(metadata i32 1, metadata !6872, metadata !DIExpression()), !dbg !7413
  call void @llvm.dbg.value(metadata i32 1, metadata !6939, metadata !DIExpression()), !dbg !7414
  %84 = fdiv float %66, %76, !dbg !7416
  store float %84, float* %67, align 4, !dbg !7416, !alias.scope !7314
  call void @llvm.dbg.value(metadata i32 2, metadata !6872, metadata !DIExpression()), !dbg !7413
  call void @llvm.dbg.value(metadata i32 2, metadata !6872, metadata !DIExpression()), !dbg !7413
  call void @llvm.dbg.value(metadata i32 2, metadata !6939, metadata !DIExpression()), !dbg !7414
  %85 = fdiv float %70, %76, !dbg !7416
  store float %85, float* %71, align 4, !dbg !7416, !alias.scope !7314
  call void @llvm.dbg.value(metadata i32 3, metadata !6872, metadata !DIExpression()), !dbg !7413
  call void @llvm.dbg.value(metadata i32 3, metadata !6870, metadata !DIExpression()), !dbg !7412
  %86 = getelementptr inbounds %"class.android::ColorSpace", %"class.android::ColorSpace"* %0, i32 0, i32 3, !dbg !7417
  %87 = bitcast %"struct.android::ColorSpace::TransferParameters"* %86 to i32*, !dbg !7417
  store i32 %6, i32* %87, align 4, !dbg !7417
  %88 = getelementptr inbounds %"class.android::ColorSpace", %"class.android::ColorSpace"* %0, i32 0, i32 3, i32 1, !dbg !7417
  %89 = bitcast float* %88 to i32*, !dbg !7417
  store i32 %7, i32* %89, align 4, !dbg !7417
  %90 = getelementptr inbounds %"class.android::ColorSpace", %"class.android::ColorSpace"* %0, i32 0, i32 3, i32 2, !dbg !7417
  %91 = bitcast float* %90 to i32*, !dbg !7417
  store i32 %8, i32* %91, align 4, !dbg !7417
  %92 = getelementptr inbounds %"class.android::ColorSpace", %"class.android::ColorSpace"* %0, i32 0, i32 3, i32 3, !dbg !7417
  %93 = bitcast float* %92 to i32*, !dbg !7417
  store i32 %9, i32* %93, align 4, !dbg !7417
  %94 = getelementptr inbounds %"class.android::ColorSpace", %"class.android::ColorSpace"* %0, i32 0, i32 3, i32 4, !dbg !7417
  %95 = bitcast float* %94 to i32*, !dbg !7417
  store i32 %10, i32* %95, align 4, !dbg !7417
  %96 = getelementptr inbounds %"class.android::ColorSpace", %"class.android::ColorSpace"* %0, i32 0, i32 3, i32 5, !dbg !7417
  %97 = bitcast float* %96 to i32*, !dbg !7417
  store i32 %11, i32* %97, align 4, !dbg !7417
  %98 = getelementptr inbounds %"class.android::ColorSpace", %"class.android::ColorSpace"* %0, i32 0, i32 3, i32 6, !dbg !7417
  %99 = bitcast float* %98 to i32*, !dbg !7417
  store i32 %12, i32* %99, align 4, !dbg !7417
  call void @llvm.dbg.value(metadata %"struct.android::ColorSpace::TransferParameters"* %86, metadata !7418, metadata !DIExpression()) #14, !dbg !7423
  %100 = bitcast i32 %11 to float, !dbg !7425
  %101 = fcmp oeq float %100, 0.000000e+00, !dbg !7427
  %102 = bitcast i32 %12 to float, !dbg !7428
  %103 = fcmp oeq float %102, 0.000000e+00, !dbg !7429
  %104 = and i1 %101, %103, !dbg !7428
  call void @llvm.dbg.value(metadata %"class.android::ColorSpace"* %0, metadata !7430, metadata !DIExpression(DW_OP_plus_uconst, 112, DW_OP_stack_value)) #14, !dbg !7670
  call void @llvm.dbg.value(metadata %"class.android::ColorSpace"* %0, metadata !7430, metadata !DIExpression(DW_OP_plus_uconst, 112, DW_OP_stack_value)) #14, !dbg !7673
  %105 = getelementptr inbounds %"class.android::ColorSpace", %"class.android::ColorSpace"* %0, i32 0, i32 4, i32 1, !dbg !7423
  call void @llvm.dbg.value(metadata %"class.std::__1::__bind.41"* undef, metadata !7439, metadata !DIExpression(DW_OP_deref)) #14, !dbg !7670
  call void @llvm.dbg.value(metadata %"class.std::__1::__bind.41"* undef, metadata !7439, metadata !DIExpression(DW_OP_deref)) #14, !dbg !7673
  call void @llvm.dbg.value(metadata i32 1, metadata !7675, metadata !DIExpression()) #14, !dbg !7681
  call void @llvm.dbg.value(metadata i32 1, metadata !7675, metadata !DIExpression()) #14, !dbg !7683
  call void @llvm.dbg.value(metadata i8* null, metadata !7680, metadata !DIExpression()) #14, !dbg !7681
  call void @llvm.dbg.value(metadata i8* null, metadata !7680, metadata !DIExpression()) #14, !dbg !7683
  call void @llvm.dbg.value(metadata i32 36, metadata !7685, metadata !DIExpression()) #14, !dbg !7689
  call void @llvm.dbg.value(metadata i32 36, metadata !7685, metadata !DIExpression()) #14, !dbg !7691
  %106 = tail call i8* @_Znwj(i32 36) #15, !dbg !7423
  call void @llvm.dbg.value(metadata %"class.std::__1::unique_ptr.50"* undef, metadata !7447, metadata !DIExpression(DW_OP_deref)) #14, !dbg !7693
  call void @llvm.dbg.value(metadata %"class.std::__1::unique_ptr.50"* undef, metadata !7447, metadata !DIExpression(DW_OP_deref)) #14, !dbg !7694
  call void @llvm.dbg.value(metadata %"class.std::__1::unique_ptr.50"* undef, metadata !7447, metadata !DIExpression(DW_OP_deref)) #14, !dbg !7693
  call void @llvm.dbg.value(metadata %"class.std::__1::unique_ptr.50"* undef, metadata !7447, metadata !DIExpression(DW_OP_deref)) #14, !dbg !7694
  call void @llvm.dbg.value(metadata %"class.std::__1::__bind.41"* undef, metadata !7439, metadata !DIExpression(DW_OP_deref)) #14, !dbg !7670
  call void @llvm.dbg.value(metadata %"class.std::__1::__bind.41"* undef, metadata !7439, metadata !DIExpression(DW_OP_deref)) #14, !dbg !7673
  call void @llvm.dbg.value(metadata i8* %106, metadata !7695, metadata !DIExpression()) #14, !dbg !7700
  call void @llvm.dbg.value(metadata i8* %106, metadata !7695, metadata !DIExpression()) #14, !dbg !7702
  call void @llvm.dbg.value(metadata %"class.std::__1::__bind.41"* undef, metadata !7698, metadata !DIExpression()) #14, !dbg !7700
  call void @llvm.dbg.value(metadata %"class.std::__1::__bind.41"* undef, metadata !7698, metadata !DIExpression()) #14, !dbg !7702
  call void @llvm.dbg.value(metadata %"class.std::__1::allocator.56"* undef, metadata !7699, metadata !DIExpression()) #14, !dbg !7700
  call void @llvm.dbg.value(metadata %"class.std::__1::allocator.56"* undef, metadata !7699, metadata !DIExpression()) #14, !dbg !7702
  %107 = bitcast i8* %106 to i32 (...)***, !dbg !7423
  store i32 (...)** bitcast (i8** getelementptr inbounds ({ [9 x i8*] }, { [9 x i8*] }* @_ZTVNSt3__110__function6__funcINS_6__bindIRFffRKN7android10ColorSpace18TransferParametersEEJRKNS_12placeholders4__phILi1EEES7_EEENS_9allocatorISF_EEFffEEE, i32 0, inrange i32 0, i32 2) to i32 (...)**), i32 (...)*** %107, align 4, !dbg !7423
  call void @llvm.dbg.value(metadata %"class.std::__1::__compressed_pair.53"* undef, metadata !7704, metadata !DIExpression()) #14, !dbg !7717
  call void @llvm.dbg.value(metadata %"class.std::__1::__compressed_pair.53"* undef, metadata !7704, metadata !DIExpression()) #14, !dbg !7719
  call void @llvm.dbg.value(metadata %"class.std::__1::tuple.59"* undef, metadata !7714, metadata !DIExpression(DW_OP_deref)) #14, !dbg !7717
  call void @llvm.dbg.value(metadata %"class.std::__1::tuple.59"* undef, metadata !7714, metadata !DIExpression(DW_OP_deref)) #14, !dbg !7719
  call void @llvm.dbg.value(metadata %"class.std::__1::__compressed_pair.53"* undef, metadata !7721, metadata !DIExpression()) #14, !dbg !7734
  call void @llvm.dbg.value(metadata %"class.std::__1::__compressed_pair.53"* undef, metadata !7721, metadata !DIExpression()) #14, !dbg !7736
  call void @llvm.dbg.value(metadata %"class.std::__1::tuple.59"* undef, metadata !7731, metadata !DIExpression(DW_OP_deref)) #14, !dbg !7734
  call void @llvm.dbg.value(metadata %"class.std::__1::tuple.59"* undef, metadata !7731, metadata !DIExpression(DW_OP_deref)) #14, !dbg !7736
  %108 = getelementptr inbounds i8, i8* %106, i32 4, !dbg !7423
  %109 = bitcast i8* %108 to i32*, !dbg !7423
  br i1 %104, label %110, label %127, !dbg !7428

110:                                              ; preds = %5
  store i32 ptrtoint (float (float, %"struct.android::ColorSpace::TransferParameters"*)* @_ZN7androidL11rcpResponseEfRKNS_10ColorSpace18TransferParametersE to i32), i32* %109, align 4, !dbg !7738, !noalias !7739
  %111 = getelementptr inbounds i8, i8* %106, i32 8, !dbg !7738
  %112 = bitcast i8* %111 to i32*, !dbg !7738
  store i32 %6, i32* %112, align 4, !dbg !7738, !noalias !7739
  %113 = getelementptr inbounds i8, i8* %106, i32 12, !dbg !7738
  %114 = bitcast i8* %113 to i32*, !dbg !7738
  store i32 %7, i32* %114, align 4, !dbg !7738, !noalias !7739
  %115 = getelementptr inbounds i8, i8* %106, i32 16, !dbg !7738
  %116 = bitcast i8* %115 to i32*, !dbg !7738
  store i32 %8, i32* %116, align 4, !dbg !7738, !noalias !7739
  %117 = getelementptr inbounds i8, i8* %106, i32 20, !dbg !7738
  %118 = bitcast i8* %117 to i32*, !dbg !7738
  store i32 %9, i32* %118, align 4, !dbg !7738, !noalias !7739
  %119 = getelementptr inbounds i8, i8* %106, i32 24, !dbg !7738
  %120 = bitcast i8* %119 to i32*, !dbg !7738
  store i32 %10, i32* %120, align 4, !dbg !7738, !noalias !7739
  %121 = getelementptr inbounds i8, i8* %106, i32 28, !dbg !7738
  %122 = bitcast i8* %121 to i32*, !dbg !7738
  store i32 %11, i32* %122, align 4, !dbg !7738, !noalias !7739
  %123 = getelementptr inbounds i8, i8* %106, i32 32, !dbg !7738
  %124 = bitcast i8* %123 to i32*, !dbg !7738
  store i32 %12, i32* %124, align 4, !dbg !7738, !noalias !7739
  call void @llvm.dbg.value(metadata %"class.std::__1::tuple.62"* undef, metadata !7715, metadata !DIExpression(DW_OP_deref)) #14, !dbg !7717
  call void @llvm.dbg.value(metadata %"class.std::__1::unique_ptr.50"* undef, metadata !7447, metadata !DIExpression(DW_OP_deref)) #14, !dbg !7693
  %125 = bitcast %"class.std::__1::__function::__base"** %105 to i8**, !dbg !7742
  store i8* %106, i8** %125, align 8, !dbg !7742, !alias.scope !7739
  call void @llvm.dbg.value(metadata %"class.std::__1::unique_ptr.50"* undef, metadata !7447, metadata !DIExpression(DW_OP_deref)) #14, !dbg !7693
  %126 = getelementptr inbounds %"class.android::ColorSpace", %"class.android::ColorSpace"* %0, i32 0, i32 5, !dbg !7743
  call void @llvm.dbg.value(metadata %"struct.android::ColorSpace::TransferParameters"* %86, metadata !7744, metadata !DIExpression()) #14, !dbg !7747
  br label %144, !dbg !7749

127:                                              ; preds = %5
  store i32 ptrtoint (float (float, %"struct.android::ColorSpace::TransferParameters"*)* @_ZN7androidL15rcpFullResponseEfRKNS_10ColorSpace18TransferParametersE to i32), i32* %109, align 4, !dbg !7751, !noalias !7739
  %128 = getelementptr inbounds i8, i8* %106, i32 8, !dbg !7751
  %129 = bitcast i8* %128 to i32*, !dbg !7751
  store i32 %6, i32* %129, align 4, !dbg !7751, !noalias !7739
  %130 = getelementptr inbounds i8, i8* %106, i32 12, !dbg !7751
  %131 = bitcast i8* %130 to i32*, !dbg !7751
  store i32 %7, i32* %131, align 4, !dbg !7751, !noalias !7739
  %132 = getelementptr inbounds i8, i8* %106, i32 16, !dbg !7751
  %133 = bitcast i8* %132 to i32*, !dbg !7751
  store i32 %8, i32* %133, align 4, !dbg !7751, !noalias !7739
  %134 = getelementptr inbounds i8, i8* %106, i32 20, !dbg !7751
  %135 = bitcast i8* %134 to i32*, !dbg !7751
  store i32 %9, i32* %135, align 4, !dbg !7751, !noalias !7739
  %136 = getelementptr inbounds i8, i8* %106, i32 24, !dbg !7751
  %137 = bitcast i8* %136 to i32*, !dbg !7751
  store i32 %10, i32* %137, align 4, !dbg !7751, !noalias !7739
  %138 = getelementptr inbounds i8, i8* %106, i32 28, !dbg !7751
  %139 = bitcast i8* %138 to i32*, !dbg !7751
  store i32 %11, i32* %139, align 4, !dbg !7751, !noalias !7739
  %140 = getelementptr inbounds i8, i8* %106, i32 32, !dbg !7751
  %141 = bitcast i8* %140 to i32*, !dbg !7751
  store i32 %12, i32* %141, align 4, !dbg !7751, !noalias !7739
  call void @llvm.dbg.value(metadata %"class.std::__1::tuple.62"* undef, metadata !7715, metadata !DIExpression(DW_OP_deref)) #14, !dbg !7719
  call void @llvm.dbg.value(metadata %"class.std::__1::unique_ptr.50"* undef, metadata !7447, metadata !DIExpression(DW_OP_deref)) #14, !dbg !7694
  %142 = bitcast %"class.std::__1::__function::__base"** %105 to i8**, !dbg !7752
  store i8* %106, i8** %142, align 8, !dbg !7752, !alias.scope !7739
  call void @llvm.dbg.value(metadata %"class.std::__1::unique_ptr.50"* undef, metadata !7447, metadata !DIExpression(DW_OP_deref)) #14, !dbg !7694
  %143 = getelementptr inbounds %"class.android::ColorSpace", %"class.android::ColorSpace"* %0, i32 0, i32 5, !dbg !7743
  call void @llvm.dbg.value(metadata %"struct.android::ColorSpace::TransferParameters"* %86, metadata !7744, metadata !DIExpression()) #14, !dbg !7747
  br i1 %101, label %144, label %149, !dbg !7749

144:                                              ; preds = %110, %127
  %145 = phi %"class.std::__1::function"* [ %126, %110 ], [ %143, %127 ]
  %146 = fcmp oeq float %102, 0.000000e+00, !dbg !7753
  br i1 %146, label %147, label %149, !dbg !7754

147:                                              ; preds = %144
  call void @llvm.dbg.value(metadata %"class.std::__1::function"* %143, metadata !7430, metadata !DIExpression()) #14, !dbg !7755
  %148 = getelementptr inbounds %"class.android::ColorSpace", %"class.android::ColorSpace"* %0, i32 0, i32 5, i32 1, !dbg !7758
  call void @llvm.dbg.value(metadata %"class.std::__1::__bind.41"* undef, metadata !7439, metadata !DIExpression(DW_OP_deref)) #14, !dbg !7755
  call void @llvm.dbg.value(metadata i32 1, metadata !7675, metadata !DIExpression()) #14, !dbg !7759
  call void @llvm.dbg.value(metadata i8* null, metadata !7680, metadata !DIExpression()) #14, !dbg !7759
  call void @llvm.dbg.value(metadata i32 36, metadata !7685, metadata !DIExpression()) #14, !dbg !7761
  call void @llvm.dbg.value(metadata %"class.std::__1::unique_ptr.50"* undef, metadata !7447, metadata !DIExpression(DW_OP_deref)) #14, !dbg !7763
  call void @llvm.dbg.value(metadata %"class.std::__1::unique_ptr.50"* undef, metadata !7447, metadata !DIExpression(DW_OP_deref)) #14, !dbg !7763
  call void @llvm.dbg.value(metadata %"class.std::__1::__bind.41"* undef, metadata !7439, metadata !DIExpression(DW_OP_deref)) #14, !dbg !7755
  call void @llvm.dbg.value(metadata i8* %155, metadata !7695, metadata !DIExpression()) #14, !dbg !7764
  call void @llvm.dbg.value(metadata %"class.std::__1::__bind.41"* undef, metadata !7698, metadata !DIExpression()) #14, !dbg !7764
  call void @llvm.dbg.value(metadata %"class.std::__1::allocator.56"* undef, metadata !7699, metadata !DIExpression()) #14, !dbg !7764
  call void @llvm.dbg.value(metadata %"class.std::__1::__compressed_pair.53"* undef, metadata !7704, metadata !DIExpression()) #14, !dbg !7766
  call void @llvm.dbg.value(metadata %"class.std::__1::tuple.59"* undef, metadata !7714, metadata !DIExpression(DW_OP_deref)) #14, !dbg !7766
  call void @llvm.dbg.value(metadata %"class.std::__1::__compressed_pair.53"* undef, metadata !7721, metadata !DIExpression()) #14, !dbg !7768
  call void @llvm.dbg.value(metadata %"class.std::__1::tuple.59"* undef, metadata !7731, metadata !DIExpression(DW_OP_deref)) #14, !dbg !7768
  call void @llvm.dbg.value(metadata %"class.std::__1::tuple.62"* undef, metadata !7715, metadata !DIExpression(DW_OP_deref)) #14, !dbg !7766
  call void @llvm.dbg.value(metadata %"class.std::__1::unique_ptr.50"* undef, metadata !7447, metadata !DIExpression(DW_OP_deref)) #14, !dbg !7763
  call void @llvm.dbg.value(metadata %"class.std::__1::unique_ptr.50"* undef, metadata !7447, metadata !DIExpression(DW_OP_deref)) #14, !dbg !7763
  br label %152, !dbg !7770

149:                                              ; preds = %144, %127
  %150 = phi %"class.std::__1::function"* [ %143, %127 ], [ %145, %144 ]
  call void @llvm.dbg.value(metadata %"class.std::__1::function"* %143, metadata !7430, metadata !DIExpression()) #14, !dbg !7771
  %151 = getelementptr inbounds %"class.std::__1::function", %"class.std::__1::function"* %150, i32 0, i32 1, !dbg !7773
  call void @llvm.dbg.value(metadata %"class.std::__1::__bind.41"* undef, metadata !7439, metadata !DIExpression(DW_OP_deref)) #14, !dbg !7771
  call void @llvm.dbg.value(metadata i32 1, metadata !7675, metadata !DIExpression()) #14, !dbg !7774
  call void @llvm.dbg.value(metadata i8* null, metadata !7680, metadata !DIExpression()) #14, !dbg !7774
  call void @llvm.dbg.value(metadata i32 36, metadata !7685, metadata !DIExpression()) #14, !dbg !7776
  call void @llvm.dbg.value(metadata %"class.std::__1::unique_ptr.50"* undef, metadata !7447, metadata !DIExpression(DW_OP_deref)) #14, !dbg !7778
  call void @llvm.dbg.value(metadata %"class.std::__1::unique_ptr.50"* undef, metadata !7447, metadata !DIExpression(DW_OP_deref)) #14, !dbg !7778
  call void @llvm.dbg.value(metadata %"class.std::__1::__bind.41"* undef, metadata !7439, metadata !DIExpression(DW_OP_deref)) #14, !dbg !7771
  call void @llvm.dbg.value(metadata %"class.std::__1::__bind.41"* undef, metadata !7698, metadata !DIExpression()) #14, !dbg !7779
  call void @llvm.dbg.value(metadata %"class.std::__1::allocator.56"* undef, metadata !7699, metadata !DIExpression()) #14, !dbg !7779
  call void @llvm.dbg.value(metadata %"class.std::__1::__compressed_pair.53"* undef, metadata !7704, metadata !DIExpression()) #14, !dbg !7781
  call void @llvm.dbg.value(metadata %"class.std::__1::tuple.59"* undef, metadata !7714, metadata !DIExpression(DW_OP_deref)) #14, !dbg !7781
  call void @llvm.dbg.value(metadata %"class.std::__1::__compressed_pair.53"* undef, metadata !7721, metadata !DIExpression()) #14, !dbg !7783
  call void @llvm.dbg.value(metadata %"class.std::__1::tuple.59"* undef, metadata !7731, metadata !DIExpression(DW_OP_deref)) #14, !dbg !7783
  call void @llvm.dbg.value(metadata %"class.std::__1::tuple.62"* undef, metadata !7715, metadata !DIExpression(DW_OP_deref)) #14, !dbg !7781
  call void @llvm.dbg.value(metadata %"class.std::__1::unique_ptr.50"* undef, metadata !7447, metadata !DIExpression(DW_OP_deref)) #14, !dbg !7778
  call void @llvm.dbg.value(metadata %"class.std::__1::unique_ptr.50"* undef, metadata !7447, metadata !DIExpression(DW_OP_deref)) #14, !dbg !7778
  br label %152, !dbg !7785

152:                                              ; preds = %147, %149
  %153 = phi i32 [ ptrtoint (float (float, %"struct.android::ColorSpace::TransferParameters"*)* @_ZN7androidL8responseEfRKNS_10ColorSpace18TransferParametersE to i32), %147 ], [ ptrtoint (float (float, %"struct.android::ColorSpace::TransferParameters"*)* @_ZN7androidL12fullResponseEfRKNS_10ColorSpace18TransferParametersE to i32), %149 ]
  %154 = phi %"class.std::__1::__function::__base"** [ %148, %147 ], [ %151, %149 ]
  %155 = tail call i8* @_Znwj(i32 36) #15, !dbg !7747, !noalias !7786
  %156 = bitcast i8* %155 to i32 (...)***, !dbg !7747
  store i32 (...)** bitcast (i8** getelementptr inbounds ({ [9 x i8*] }, { [9 x i8*] }* @_ZTVNSt3__110__function6__funcINS_6__bindIRFffRKN7android10ColorSpace18TransferParametersEEJRKNS_12placeholders4__phILi1EEES7_EEENS_9allocatorISF_EEFffEEE, i32 0, inrange i32 0, i32 2) to i32 (...)**), i32 (...)*** %156, align 4, !dbg !7747, !noalias !7786
  %157 = getelementptr inbounds i8, i8* %155, i32 4, !dbg !7747
  %158 = bitcast i8* %157 to i32*, !dbg !7747
  store i32 %153, i32* %158, align 4, !dbg !7747, !noalias !7786
  %159 = getelementptr inbounds i8, i8* %155, i32 8, !dbg !7747
  %160 = bitcast i8* %159 to i32*, !dbg !7747
  store i32 %6, i32* %160, align 4, !dbg !7747, !noalias !7786
  %161 = getelementptr inbounds i8, i8* %155, i32 12, !dbg !7747
  %162 = bitcast i8* %161 to i32*, !dbg !7747
  store i32 %7, i32* %162, align 4, !dbg !7747, !noalias !7786
  %163 = getelementptr inbounds i8, i8* %155, i32 16, !dbg !7747
  %164 = bitcast i8* %163 to i32*, !dbg !7747
  store i32 %8, i32* %164, align 4, !dbg !7747, !noalias !7786
  %165 = getelementptr inbounds i8, i8* %155, i32 20, !dbg !7747
  %166 = bitcast i8* %165 to i32*, !dbg !7747
  store i32 %9, i32* %166, align 4, !dbg !7747, !noalias !7786
  %167 = getelementptr inbounds i8, i8* %155, i32 24, !dbg !7747
  %168 = bitcast i8* %167 to i32*, !dbg !7747
  store i32 %10, i32* %168, align 4, !dbg !7747, !noalias !7786
  %169 = getelementptr inbounds i8, i8* %155, i32 28, !dbg !7747
  %170 = bitcast i8* %169 to i32*, !dbg !7747
  store i32 %11, i32* %170, align 4, !dbg !7747, !noalias !7786
  %171 = getelementptr inbounds i8, i8* %155, i32 32, !dbg !7747
  %172 = bitcast i8* %171 to i32*, !dbg !7747
  store i32 %12, i32* %172, align 4, !dbg !7747, !noalias !7786
  %173 = bitcast %"class.std::__1::__function::__base"** %154 to i8**, !dbg !7747
  store i8* %155, i8** %173, align 8, !dbg !7747, !alias.scope !7786
  %174 = getelementptr inbounds %"class.android::ColorSpace", %"class.android::ColorSpace"* %0, i32 0, i32 6, !dbg !7789
  call void @llvm.dbg.value(metadata %"class.std::__1::function"* %174, metadata !7011, metadata !DIExpression()) #14, !dbg !7790
  call void @llvm.dbg.value(metadata %"class.std::__1::function"* %4, metadata !7014, metadata !DIExpression()) #14, !dbg !7790
  %175 = getelementptr inbounds %"class.std::__1::function", %"class.std::__1::function"* %4, i32 0, i32 1, !dbg !7792
  %176 = load %"class.std::__1::__function::__base"*, %"class.std::__1::__function::__base"** %175, align 8, !dbg !7792
  %177 = icmp eq %"class.std::__1::__function::__base"* %176, null, !dbg !7793
  br i1 %177, label %178, label %180, !dbg !7794

178:                                              ; preds = %152
  %179 = getelementptr inbounds %"class.android::ColorSpace", %"class.android::ColorSpace"* %0, i32 0, i32 6, i32 1, !dbg !7795
  store %"class.std::__1::__function::__base"* null, %"class.std::__1::__function::__base"** %179, align 8, !dbg !7796
  br label %195, !dbg !7795

180:                                              ; preds = %152
  %181 = bitcast %"class.std::__1::__function::__base"* %176 to i8*, !dbg !7797
  %182 = getelementptr inbounds %"class.std::__1::function", %"class.std::__1::function"* %4, i32 0, i32 0, i32 0, i32 0, !dbg !7798
  %183 = icmp eq i8* %182, %181, !dbg !7799
  br i1 %183, label %184, label %193, !dbg !7800

184:                                              ; preds = %180
  call void @llvm.dbg.value(metadata %"class.std::__1::function"* %174, metadata !7030, metadata !DIExpression()) #14, !dbg !7801
  %185 = bitcast %"class.std::__1::function"* %174 to %"class.std::__1::__function::__base"*, !dbg !7803
  %186 = getelementptr inbounds %"class.android::ColorSpace", %"class.android::ColorSpace"* %0, i32 0, i32 6, i32 1, !dbg !7804
  %187 = bitcast %"class.std::__1::__function::__base"** %186 to %"class.std::__1::function"**, !dbg !7805
  store %"class.std::__1::function"* %174, %"class.std::__1::function"** %187, align 8, !dbg !7805
  %188 = load %"class.std::__1::__function::__base"*, %"class.std::__1::__function::__base"** %175, align 8, !dbg !7806
  %189 = bitcast %"class.std::__1::__function::__base"* %188 to void (%"class.std::__1::__function::__base"*, %"class.std::__1::__function::__base"*)***, !dbg !7807
  %190 = load void (%"class.std::__1::__function::__base"*, %"class.std::__1::__function::__base"*)**, void (%"class.std::__1::__function::__base"*, %"class.std::__1::__function::__base"*)*** %189, align 4, !dbg !7807
  %191 = getelementptr inbounds void (%"class.std::__1::__function::__base"*, %"class.std::__1::__function::__base"*)*, void (%"class.std::__1::__function::__base"*, %"class.std::__1::__function::__base"*)** %190, i32 3, !dbg !7807
  %192 = load void (%"class.std::__1::__function::__base"*, %"class.std::__1::__function::__base"*)*, void (%"class.std::__1::__function::__base"*, %"class.std::__1::__function::__base"*)** %191, align 4, !dbg !7807
  tail call void %192(%"class.std::__1::__function::__base"* %188, %"class.std::__1::__function::__base"* nonnull %185) #13, !dbg !7807
  br label %195, !dbg !7808

193:                                              ; preds = %180
  %194 = getelementptr inbounds %"class.android::ColorSpace", %"class.android::ColorSpace"* %0, i32 0, i32 6, i32 1, !dbg !7809
  store %"class.std::__1::__function::__base"* %176, %"class.std::__1::__function::__base"** %194, align 8, !dbg !7810
  store %"class.std::__1::__function::__base"* null, %"class.std::__1::__function::__base"** %175, align 8, !dbg !7811
  br label %195

195:                                              ; preds = %178, %184, %193
  call void @llvm.dbg.value(metadata %"class.android::details::TMat33"* %2, metadata !7092, metadata !DIExpression()), !dbg !7812
  call void @llvm.dbg.value(metadata %"class.android::details::TVec3"* undef, metadata !7097, metadata !DIExpression(DW_OP_deref)), !dbg !7812
  call void @llvm.dbg.value(metadata %"class.android::details::TMat33"* %2, metadata !7102, metadata !DIExpression()), !dbg !7814
  call void @llvm.dbg.value(metadata %"class.android::details::TVec3"* undef, metadata !7107, metadata !DIExpression()), !dbg !7814
  call void @llvm.dbg.value(metadata i32 0, metadata !7109, metadata !DIExpression()), !dbg !7816
  call void @llvm.dbg.value(metadata i32 0, metadata !7109, metadata !DIExpression()), !dbg !7816
  %196 = load float, float* %18, align 4, !dbg !7817, !noalias !7818
  %197 = getelementptr inbounds %"class.android::details::TMat33", %"class.android::details::TMat33"* %2, i32 0, i32 0, i32 0, i32 0, i32 0, i32 1, !dbg !7817
  %198 = load float, float* %197, align 4, !dbg !7817, !noalias !7818
  %199 = getelementptr inbounds %"class.android::details::TMat33", %"class.android::details::TMat33"* %2, i32 0, i32 0, i32 0, i32 0, i32 0, i32 2, !dbg !7817
  %200 = load float, float* %199, align 4, !dbg !7817, !noalias !7818
  call void @llvm.dbg.value(metadata %"class.android::details::TVec3"* undef, metadata !7124, metadata !DIExpression()), !dbg !7823
  call void @llvm.dbg.value(metadata %"class.android::details::TVecProductOperators"* undef, metadata !7132, metadata !DIExpression()), !dbg !7825
  call void @llvm.dbg.value(metadata %"class.android::details::TVec3"* undef, metadata !7135, metadata !DIExpression()), !dbg !7825
  call void @llvm.dbg.value(metadata i32 0, metadata !7137, metadata !DIExpression()), !dbg !7827
  call void @llvm.dbg.value(metadata i32 0, metadata !7137, metadata !DIExpression()), !dbg !7827
  call void @llvm.dbg.value(metadata i32 1, metadata !7137, metadata !DIExpression()), !dbg !7827
  call void @llvm.dbg.value(metadata i32 1, metadata !7137, metadata !DIExpression()), !dbg !7827
  call void @llvm.dbg.value(metadata i32 2, metadata !7137, metadata !DIExpression()), !dbg !7827
  call void @llvm.dbg.value(metadata i32 2, metadata !7137, metadata !DIExpression()), !dbg !7827
  call void @llvm.dbg.value(metadata i32 3, metadata !7137, metadata !DIExpression()), !dbg !7827
  call void @llvm.dbg.value(metadata %"class.android::details::TVec3"* undef, metadata !7143, metadata !DIExpression()), !dbg !7828
  call void @llvm.dbg.value(metadata %"class.android::details::TVec3"* undef, metadata !7146, metadata !DIExpression()), !dbg !7828
  call void @llvm.dbg.value(metadata i32 0, metadata !7148, metadata !DIExpression()), !dbg !7830
  call void @llvm.dbg.value(metadata i32 0, metadata !7148, metadata !DIExpression()), !dbg !7830
  %201 = fadd float %196, 0.000000e+00, !dbg !7831
  call void @llvm.dbg.value(metadata i32 1, metadata !7148, metadata !DIExpression()), !dbg !7830
  call void @llvm.dbg.value(metadata i32 1, metadata !7148, metadata !DIExpression()), !dbg !7830
  %202 = fadd float %198, 0.000000e+00, !dbg !7831
  call void @llvm.dbg.value(metadata i32 2, metadata !7148, metadata !DIExpression()), !dbg !7830
  call void @llvm.dbg.value(metadata i32 2, metadata !7148, metadata !DIExpression()), !dbg !7830
  %203 = fadd float %200, 0.000000e+00, !dbg !7831
  call void @llvm.dbg.value(metadata i32 3, metadata !7148, metadata !DIExpression()), !dbg !7830
  call void @llvm.dbg.value(metadata i32 1, metadata !7109, metadata !DIExpression()), !dbg !7816
  call void @llvm.dbg.value(metadata i32 1, metadata !7109, metadata !DIExpression()), !dbg !7816
  %204 = load float, float* %20, align 4, !dbg !7817, !noalias !7818
  %205 = getelementptr inbounds %"class.android::details::TMat33", %"class.android::details::TMat33"* %2, i32 0, i32 0, i32 1, i32 0, i32 0, i32 1, !dbg !7817
  %206 = load float, float* %205, align 4, !dbg !7817, !noalias !7818
  %207 = getelementptr inbounds %"class.android::details::TMat33", %"class.android::details::TMat33"* %2, i32 0, i32 0, i32 1, i32 0, i32 0, i32 2, !dbg !7817
  %208 = load float, float* %207, align 4, !dbg !7817, !noalias !7818
  call void @llvm.dbg.value(metadata %"class.android::details::TVec3"* undef, metadata !7124, metadata !DIExpression()), !dbg !7823
  call void @llvm.dbg.value(metadata %"class.android::details::TVecProductOperators"* undef, metadata !7132, metadata !DIExpression()), !dbg !7825
  call void @llvm.dbg.value(metadata %"class.android::details::TVec3"* undef, metadata !7135, metadata !DIExpression()), !dbg !7825
  call void @llvm.dbg.value(metadata i32 0, metadata !7137, metadata !DIExpression()), !dbg !7827
  call void @llvm.dbg.value(metadata i32 0, metadata !7137, metadata !DIExpression()), !dbg !7827
  %209 = fmul float %204, 0.000000e+00, !dbg !7832
  call void @llvm.dbg.value(metadata i32 1, metadata !7137, metadata !DIExpression()), !dbg !7827
  call void @llvm.dbg.value(metadata i32 1, metadata !7137, metadata !DIExpression()), !dbg !7827
  %210 = fmul float %206, 0.000000e+00, !dbg !7832
  call void @llvm.dbg.value(metadata i32 2, metadata !7137, metadata !DIExpression()), !dbg !7827
  call void @llvm.dbg.value(metadata i32 2, metadata !7137, metadata !DIExpression()), !dbg !7827
  %211 = fmul float %208, 0.000000e+00, !dbg !7832
  call void @llvm.dbg.value(metadata i32 3, metadata !7137, metadata !DIExpression()), !dbg !7827
  call void @llvm.dbg.value(metadata %"class.android::details::TVec3"* undef, metadata !7143, metadata !DIExpression()), !dbg !7828
  call void @llvm.dbg.value(metadata %"class.android::details::TVec3"* undef, metadata !7146, metadata !DIExpression()), !dbg !7828
  call void @llvm.dbg.value(metadata i32 0, metadata !7148, metadata !DIExpression()), !dbg !7830
  call void @llvm.dbg.value(metadata i32 0, metadata !7148, metadata !DIExpression()), !dbg !7830
  %212 = fadd float %201, %209, !dbg !7831
  call void @llvm.dbg.value(metadata i32 1, metadata !7148, metadata !DIExpression()), !dbg !7830
  call void @llvm.dbg.value(metadata i32 1, metadata !7148, metadata !DIExpression()), !dbg !7830
  %213 = fadd float %202, %210, !dbg !7831
  call void @llvm.dbg.value(metadata i32 2, metadata !7148, metadata !DIExpression()), !dbg !7830
  call void @llvm.dbg.value(metadata i32 2, metadata !7148, metadata !DIExpression()), !dbg !7830
  %214 = fadd float %203, %211, !dbg !7831
  call void @llvm.dbg.value(metadata i32 3, metadata !7148, metadata !DIExpression()), !dbg !7830
  call void @llvm.dbg.value(metadata i32 2, metadata !7109, metadata !DIExpression()), !dbg !7816
  call void @llvm.dbg.value(metadata i32 2, metadata !7109, metadata !DIExpression()), !dbg !7816
  %215 = load float, float* %22, align 4, !dbg !7817, !noalias !7818
  %216 = getelementptr inbounds %"class.android::details::TMat33", %"class.android::details::TMat33"* %2, i32 0, i32 0, i32 2, i32 0, i32 0, i32 1, !dbg !7817
  %217 = load float, float* %216, align 4, !dbg !7817, !noalias !7818
  %218 = getelementptr inbounds %"class.android::details::TMat33", %"class.android::details::TMat33"* %2, i32 0, i32 0, i32 2, i32 0, i32 0, i32 2, !dbg !7817
  %219 = load float, float* %218, align 4, !dbg !7817, !noalias !7818
  call void @llvm.dbg.value(metadata %"class.android::details::TVec3"* undef, metadata !7124, metadata !DIExpression()), !dbg !7823
  call void @llvm.dbg.value(metadata %"class.android::details::TVecProductOperators"* undef, metadata !7132, metadata !DIExpression()), !dbg !7825
  call void @llvm.dbg.value(metadata %"class.android::details::TVec3"* undef, metadata !7135, metadata !DIExpression()), !dbg !7825
  call void @llvm.dbg.value(metadata i32 0, metadata !7137, metadata !DIExpression()), !dbg !7827
  call void @llvm.dbg.value(metadata i32 0, metadata !7137, metadata !DIExpression()), !dbg !7827
  %220 = fmul float %215, 0.000000e+00, !dbg !7832
  call void @llvm.dbg.value(metadata i32 1, metadata !7137, metadata !DIExpression()), !dbg !7827
  call void @llvm.dbg.value(metadata i32 1, metadata !7137, metadata !DIExpression()), !dbg !7827
  %221 = fmul float %217, 0.000000e+00, !dbg !7832
  call void @llvm.dbg.value(metadata i32 2, metadata !7137, metadata !DIExpression()), !dbg !7827
  call void @llvm.dbg.value(metadata i32 2, metadata !7137, metadata !DIExpression()), !dbg !7827
  %222 = fmul float %219, 0.000000e+00, !dbg !7832
  call void @llvm.dbg.value(metadata i32 3, metadata !7137, metadata !DIExpression()), !dbg !7827
  call void @llvm.dbg.value(metadata %"class.android::details::TVec3"* undef, metadata !7143, metadata !DIExpression()), !dbg !7828
  call void @llvm.dbg.value(metadata %"class.android::details::TVec3"* undef, metadata !7146, metadata !DIExpression()), !dbg !7828
  call void @llvm.dbg.value(metadata i32 0, metadata !7148, metadata !DIExpression()), !dbg !7830
  call void @llvm.dbg.value(metadata i32 0, metadata !7148, metadata !DIExpression()), !dbg !7830
  %223 = fadd float %212, %220, !dbg !7831
  call void @llvm.dbg.value(metadata i32 1, metadata !7148, metadata !DIExpression()), !dbg !7830
  call void @llvm.dbg.value(metadata i32 1, metadata !7148, metadata !DIExpression()), !dbg !7830
  %224 = fadd float %213, %221, !dbg !7831
  call void @llvm.dbg.value(metadata i32 2, metadata !7148, metadata !DIExpression()), !dbg !7830
  call void @llvm.dbg.value(metadata i32 2, metadata !7148, metadata !DIExpression()), !dbg !7830
  %225 = fadd float %214, %222, !dbg !7831
  call void @llvm.dbg.value(metadata i32 3, metadata !7148, metadata !DIExpression()), !dbg !7830
  call void @llvm.dbg.value(metadata i32 3, metadata !7109, metadata !DIExpression()), !dbg !7816
  call void @llvm.dbg.value(metadata float %223, metadata !7108, metadata !DIExpression(DW_OP_LLVM_fragment, 0, 32)), !dbg !7814
  call void @llvm.dbg.value(metadata float %224, metadata !7108, metadata !DIExpression(DW_OP_LLVM_fragment, 32, 32)), !dbg !7814
  call void @llvm.dbg.value(metadata float %225, metadata !7108, metadata !DIExpression(DW_OP_LLVM_fragment, 64, 32)), !dbg !7814
  call void @llvm.dbg.value(metadata %"class.android::details::TVec3"* undef, metadata !7098, metadata !DIExpression(DW_OP_deref)), !dbg !7812
  call void @llvm.dbg.value(metadata %"class.android::details::TMat33"* %2, metadata !7102, metadata !DIExpression()), !dbg !7833
  call void @llvm.dbg.value(metadata %"class.android::details::TVec3"* undef, metadata !7107, metadata !DIExpression()), !dbg !7833
  call void @llvm.dbg.value(metadata i32 0, metadata !7109, metadata !DIExpression()), !dbg !7835
  call void @llvm.dbg.value(metadata i32 0, metadata !7109, metadata !DIExpression()), !dbg !7835
  call void @llvm.dbg.value(metadata %"class.android::details::TVec3"* undef, metadata !7124, metadata !DIExpression()), !dbg !7836
  call void @llvm.dbg.value(metadata %"class.android::details::TVecProductOperators"* undef, metadata !7132, metadata !DIExpression()), !dbg !7838
  call void @llvm.dbg.value(metadata %"class.android::details::TVec3"* undef, metadata !7135, metadata !DIExpression()), !dbg !7838
  call void @llvm.dbg.value(metadata i32 0, metadata !7137, metadata !DIExpression()), !dbg !7840
  call void @llvm.dbg.value(metadata i32 0, metadata !7137, metadata !DIExpression()), !dbg !7840
  %226 = fmul float %196, 0.000000e+00, !dbg !7841
  call void @llvm.dbg.value(metadata i32 1, metadata !7137, metadata !DIExpression()), !dbg !7840
  call void @llvm.dbg.value(metadata i32 1, metadata !7137, metadata !DIExpression()), !dbg !7840
  %227 = fmul float %198, 0.000000e+00, !dbg !7841
  call void @llvm.dbg.value(metadata i32 2, metadata !7137, metadata !DIExpression()), !dbg !7840
  call void @llvm.dbg.value(metadata i32 2, metadata !7137, metadata !DIExpression()), !dbg !7840
  %228 = fmul float %200, 0.000000e+00, !dbg !7841
  call void @llvm.dbg.value(metadata i32 3, metadata !7137, metadata !DIExpression()), !dbg !7840
  call void @llvm.dbg.value(metadata %"class.android::details::TVec3"* undef, metadata !7143, metadata !DIExpression()), !dbg !7842
  call void @llvm.dbg.value(metadata %"class.android::details::TVec3"* undef, metadata !7146, metadata !DIExpression()), !dbg !7842
  call void @llvm.dbg.value(metadata i32 0, metadata !7148, metadata !DIExpression()), !dbg !7844
  call void @llvm.dbg.value(metadata i32 0, metadata !7148, metadata !DIExpression()), !dbg !7844
  %229 = fadd float %226, 0.000000e+00, !dbg !7845
  call void @llvm.dbg.value(metadata i32 1, metadata !7148, metadata !DIExpression()), !dbg !7844
  call void @llvm.dbg.value(metadata i32 1, metadata !7148, metadata !DIExpression()), !dbg !7844
  %230 = fadd float %227, 0.000000e+00, !dbg !7845
  call void @llvm.dbg.value(metadata i32 2, metadata !7148, metadata !DIExpression()), !dbg !7844
  call void @llvm.dbg.value(metadata i32 2, metadata !7148, metadata !DIExpression()), !dbg !7844
  %231 = fadd float %228, 0.000000e+00, !dbg !7845
  call void @llvm.dbg.value(metadata i32 3, metadata !7148, metadata !DIExpression()), !dbg !7844
  call void @llvm.dbg.value(metadata i32 1, metadata !7109, metadata !DIExpression()), !dbg !7835
  call void @llvm.dbg.value(metadata i32 1, metadata !7109, metadata !DIExpression()), !dbg !7835
  call void @llvm.dbg.value(metadata %"class.android::details::TVec3"* undef, metadata !7124, metadata !DIExpression()), !dbg !7836
  call void @llvm.dbg.value(metadata %"class.android::details::TVecProductOperators"* undef, metadata !7132, metadata !DIExpression()), !dbg !7838
  call void @llvm.dbg.value(metadata %"class.android::details::TVec3"* undef, metadata !7135, metadata !DIExpression()), !dbg !7838
  call void @llvm.dbg.value(metadata i32 0, metadata !7137, metadata !DIExpression()), !dbg !7840
  call void @llvm.dbg.value(metadata i32 0, metadata !7137, metadata !DIExpression()), !dbg !7840
  call void @llvm.dbg.value(metadata i32 1, metadata !7137, metadata !DIExpression()), !dbg !7840
  call void @llvm.dbg.value(metadata i32 1, metadata !7137, metadata !DIExpression()), !dbg !7840
  call void @llvm.dbg.value(metadata i32 2, metadata !7137, metadata !DIExpression()), !dbg !7840
  call void @llvm.dbg.value(metadata i32 2, metadata !7137, metadata !DIExpression()), !dbg !7840
  call void @llvm.dbg.value(metadata i32 3, metadata !7137, metadata !DIExpression()), !dbg !7840
  call void @llvm.dbg.value(metadata %"class.android::details::TVec3"* undef, metadata !7143, metadata !DIExpression()), !dbg !7842
  call void @llvm.dbg.value(metadata %"class.android::details::TVec3"* undef, metadata !7146, metadata !DIExpression()), !dbg !7842
  call void @llvm.dbg.value(metadata i32 0, metadata !7148, metadata !DIExpression()), !dbg !7844
  call void @llvm.dbg.value(metadata i32 0, metadata !7148, metadata !DIExpression()), !dbg !7844
  %232 = fadd float %229, %204, !dbg !7845
  call void @llvm.dbg.value(metadata i32 1, metadata !7148, metadata !DIExpression()), !dbg !7844
  call void @llvm.dbg.value(metadata i32 1, metadata !7148, metadata !DIExpression()), !dbg !7844
  %233 = fadd float %230, %206, !dbg !7845
  call void @llvm.dbg.value(metadata i32 2, metadata !7148, metadata !DIExpression()), !dbg !7844
  call void @llvm.dbg.value(metadata i32 2, metadata !7148, metadata !DIExpression()), !dbg !7844
  %234 = fadd float %231, %208, !dbg !7845
  call void @llvm.dbg.value(metadata i32 3, metadata !7148, metadata !DIExpression()), !dbg !7844
  call void @llvm.dbg.value(metadata i32 2, metadata !7109, metadata !DIExpression()), !dbg !7835
  call void @llvm.dbg.value(metadata i32 2, metadata !7109, metadata !DIExpression()), !dbg !7835
  call void @llvm.dbg.value(metadata %"class.android::details::TVec3"* undef, metadata !7124, metadata !DIExpression()), !dbg !7836
  call void @llvm.dbg.value(metadata %"class.android::details::TVecProductOperators"* undef, metadata !7132, metadata !DIExpression()), !dbg !7838
  call void @llvm.dbg.value(metadata %"class.android::details::TVec3"* undef, metadata !7135, metadata !DIExpression()), !dbg !7838
  call void @llvm.dbg.value(metadata i32 0, metadata !7137, metadata !DIExpression()), !dbg !7840
  call void @llvm.dbg.value(metadata i32 0, metadata !7137, metadata !DIExpression()), !dbg !7840
  call void @llvm.dbg.value(metadata i32 1, metadata !7137, metadata !DIExpression()), !dbg !7840
  call void @llvm.dbg.value(metadata i32 1, metadata !7137, metadata !DIExpression()), !dbg !7840
  call void @llvm.dbg.value(metadata i32 2, metadata !7137, metadata !DIExpression()), !dbg !7840
  call void @llvm.dbg.value(metadata i32 2, metadata !7137, metadata !DIExpression()), !dbg !7840
  call void @llvm.dbg.value(metadata i32 3, metadata !7137, metadata !DIExpression()), !dbg !7840
  call void @llvm.dbg.value(metadata %"class.android::details::TVec3"* undef, metadata !7143, metadata !DIExpression()), !dbg !7842
  call void @llvm.dbg.value(metadata %"class.android::details::TVec3"* undef, metadata !7146, metadata !DIExpression()), !dbg !7842
  call void @llvm.dbg.value(metadata i32 0, metadata !7148, metadata !DIExpression()), !dbg !7844
  call void @llvm.dbg.value(metadata i32 0, metadata !7148, metadata !DIExpression()), !dbg !7844
  %235 = fadd float %232, %220, !dbg !7845
  call void @llvm.dbg.value(metadata i32 1, metadata !7148, metadata !DIExpression()), !dbg !7844
  call void @llvm.dbg.value(metadata i32 1, metadata !7148, metadata !DIExpression()), !dbg !7844
  %236 = fadd float %233, %221, !dbg !7845
  call void @llvm.dbg.value(metadata i32 2, metadata !7148, metadata !DIExpression()), !dbg !7844
  call void @llvm.dbg.value(metadata i32 2, metadata !7148, metadata !DIExpression()), !dbg !7844
  %237 = fadd float %234, %222, !dbg !7845
  call void @llvm.dbg.value(metadata i32 3, metadata !7148, metadata !DIExpression()), !dbg !7844
  call void @llvm.dbg.value(metadata i32 3, metadata !7109, metadata !DIExpression()), !dbg !7835
  call void @llvm.dbg.value(metadata float %235, metadata !7108, metadata !DIExpression(DW_OP_LLVM_fragment, 0, 32)), !dbg !7833
  call void @llvm.dbg.value(metadata float %236, metadata !7108, metadata !DIExpression(DW_OP_LLVM_fragment, 32, 32)), !dbg !7833
  call void @llvm.dbg.value(metadata float %237, metadata !7108, metadata !DIExpression(DW_OP_LLVM_fragment, 64, 32)), !dbg !7833
  call void @llvm.dbg.value(metadata %"class.android::details::TVec3"* undef, metadata !7099, metadata !DIExpression(DW_OP_deref)), !dbg !7812
  call void @llvm.dbg.value(metadata %"class.android::details::TMat33"* %2, metadata !7102, metadata !DIExpression()), !dbg !7846
  call void @llvm.dbg.value(metadata %"class.android::details::TVec3"* undef, metadata !7107, metadata !DIExpression()), !dbg !7846
  call void @llvm.dbg.value(metadata i32 0, metadata !7109, metadata !DIExpression()), !dbg !7848
  call void @llvm.dbg.value(metadata i32 0, metadata !7109, metadata !DIExpression()), !dbg !7848
  call void @llvm.dbg.value(metadata %"class.android::details::TVec3"* undef, metadata !7124, metadata !DIExpression()), !dbg !7849
  call void @llvm.dbg.value(metadata %"class.android::details::TVecProductOperators"* undef, metadata !7132, metadata !DIExpression()), !dbg !7851
  call void @llvm.dbg.value(metadata %"class.android::details::TVec3"* undef, metadata !7135, metadata !DIExpression()), !dbg !7851
  call void @llvm.dbg.value(metadata i32 0, metadata !7137, metadata !DIExpression()), !dbg !7853
  call void @llvm.dbg.value(metadata i32 0, metadata !7137, metadata !DIExpression()), !dbg !7853
  call void @llvm.dbg.value(metadata i32 1, metadata !7137, metadata !DIExpression()), !dbg !7853
  call void @llvm.dbg.value(metadata i32 1, metadata !7137, metadata !DIExpression()), !dbg !7853
  call void @llvm.dbg.value(metadata i32 2, metadata !7137, metadata !DIExpression()), !dbg !7853
  call void @llvm.dbg.value(metadata i32 2, metadata !7137, metadata !DIExpression()), !dbg !7853
  call void @llvm.dbg.value(metadata i32 3, metadata !7137, metadata !DIExpression()), !dbg !7853
  call void @llvm.dbg.value(metadata %"class.android::details::TVec3"* undef, metadata !7143, metadata !DIExpression()), !dbg !7854
  call void @llvm.dbg.value(metadata %"class.android::details::TVec3"* undef, metadata !7146, metadata !DIExpression()), !dbg !7854
  call void @llvm.dbg.value(metadata i32 0, metadata !7148, metadata !DIExpression()), !dbg !7856
  call void @llvm.dbg.value(metadata i32 0, metadata !7148, metadata !DIExpression()), !dbg !7856
  call void @llvm.dbg.value(metadata i32 1, metadata !7148, metadata !DIExpression()), !dbg !7856
  call void @llvm.dbg.value(metadata i32 1, metadata !7148, metadata !DIExpression()), !dbg !7856
  call void @llvm.dbg.value(metadata i32 2, metadata !7148, metadata !DIExpression()), !dbg !7856
  call void @llvm.dbg.value(metadata i32 2, metadata !7148, metadata !DIExpression()), !dbg !7856
  call void @llvm.dbg.value(metadata i32 3, metadata !7148, metadata !DIExpression()), !dbg !7856
  call void @llvm.dbg.value(metadata i32 1, metadata !7109, metadata !DIExpression()), !dbg !7848
  call void @llvm.dbg.value(metadata i32 1, metadata !7109, metadata !DIExpression()), !dbg !7848
  call void @llvm.dbg.value(metadata %"class.android::details::TVec3"* undef, metadata !7124, metadata !DIExpression()), !dbg !7849
  call void @llvm.dbg.value(metadata %"class.android::details::TVecProductOperators"* undef, metadata !7132, metadata !DIExpression()), !dbg !7851
  call void @llvm.dbg.value(metadata %"class.android::details::TVec3"* undef, metadata !7135, metadata !DIExpression()), !dbg !7851
  call void @llvm.dbg.value(metadata i32 0, metadata !7137, metadata !DIExpression()), !dbg !7853
  call void @llvm.dbg.value(metadata i32 0, metadata !7137, metadata !DIExpression()), !dbg !7853
  call void @llvm.dbg.value(metadata i32 1, metadata !7137, metadata !DIExpression()), !dbg !7853
  call void @llvm.dbg.value(metadata i32 1, metadata !7137, metadata !DIExpression()), !dbg !7853
  call void @llvm.dbg.value(metadata i32 2, metadata !7137, metadata !DIExpression()), !dbg !7853
  call void @llvm.dbg.value(metadata i32 2, metadata !7137, metadata !DIExpression()), !dbg !7853
  call void @llvm.dbg.value(metadata i32 3, metadata !7137, metadata !DIExpression()), !dbg !7853
  call void @llvm.dbg.value(metadata %"class.android::details::TVec3"* undef, metadata !7143, metadata !DIExpression()), !dbg !7854
  call void @llvm.dbg.value(metadata %"class.android::details::TVec3"* undef, metadata !7146, metadata !DIExpression()), !dbg !7854
  call void @llvm.dbg.value(metadata i32 0, metadata !7148, metadata !DIExpression()), !dbg !7856
  call void @llvm.dbg.value(metadata i32 0, metadata !7148, metadata !DIExpression()), !dbg !7856
  %238 = fadd float %229, %209, !dbg !7857
  call void @llvm.dbg.value(metadata i32 1, metadata !7148, metadata !DIExpression()), !dbg !7856
  call void @llvm.dbg.value(metadata i32 1, metadata !7148, metadata !DIExpression()), !dbg !7856
  %239 = fadd float %230, %210, !dbg !7857
  call void @llvm.dbg.value(metadata i32 2, metadata !7148, metadata !DIExpression()), !dbg !7856
  call void @llvm.dbg.value(metadata i32 2, metadata !7148, metadata !DIExpression()), !dbg !7856
  %240 = fadd float %231, %211, !dbg !7857
  call void @llvm.dbg.value(metadata i32 3, metadata !7148, metadata !DIExpression()), !dbg !7856
  call void @llvm.dbg.value(metadata i32 2, metadata !7109, metadata !DIExpression()), !dbg !7848
  call void @llvm.dbg.value(metadata i32 2, metadata !7109, metadata !DIExpression()), !dbg !7848
  call void @llvm.dbg.value(metadata %"class.android::details::TVec3"* undef, metadata !7124, metadata !DIExpression()), !dbg !7849
  call void @llvm.dbg.value(metadata %"class.android::details::TVecProductOperators"* undef, metadata !7132, metadata !DIExpression()), !dbg !7851
  call void @llvm.dbg.value(metadata %"class.android::details::TVec3"* undef, metadata !7135, metadata !DIExpression()), !dbg !7851
  call void @llvm.dbg.value(metadata i32 0, metadata !7137, metadata !DIExpression()), !dbg !7853
  call void @llvm.dbg.value(metadata i32 0, metadata !7137, metadata !DIExpression()), !dbg !7853
  call void @llvm.dbg.value(metadata i32 1, metadata !7137, metadata !DIExpression()), !dbg !7853
  call void @llvm.dbg.value(metadata i32 1, metadata !7137, metadata !DIExpression()), !dbg !7853
  call void @llvm.dbg.value(metadata i32 2, metadata !7137, metadata !DIExpression()), !dbg !7853
  call void @llvm.dbg.value(metadata i32 2, metadata !7137, metadata !DIExpression()), !dbg !7853
  call void @llvm.dbg.value(metadata i32 3, metadata !7137, metadata !DIExpression()), !dbg !7853
  call void @llvm.dbg.value(metadata %"class.android::details::TVec3"* undef, metadata !7143, metadata !DIExpression()), !dbg !7854
  call void @llvm.dbg.value(metadata %"class.android::details::TVec3"* undef, metadata !7146, metadata !DIExpression()), !dbg !7854
  call void @llvm.dbg.value(metadata i32 0, metadata !7148, metadata !DIExpression()), !dbg !7856
  call void @llvm.dbg.value(metadata i32 0, metadata !7148, metadata !DIExpression()), !dbg !7856
  %241 = fadd float %238, %215, !dbg !7857
  call void @llvm.dbg.value(metadata i32 1, metadata !7148, metadata !DIExpression()), !dbg !7856
  call void @llvm.dbg.value(metadata i32 1, metadata !7148, metadata !DIExpression()), !dbg !7856
  %242 = fadd float %239, %217, !dbg !7857
  call void @llvm.dbg.value(metadata i32 2, metadata !7148, metadata !DIExpression()), !dbg !7856
  call void @llvm.dbg.value(metadata i32 2, metadata !7148, metadata !DIExpression()), !dbg !7856
  %243 = fadd float %240, %219, !dbg !7857
  call void @llvm.dbg.value(metadata i32 3, metadata !7148, metadata !DIExpression()), !dbg !7856
  call void @llvm.dbg.value(metadata i32 3, metadata !7109, metadata !DIExpression()), !dbg !7848
  call void @llvm.dbg.value(metadata float %241, metadata !7108, metadata !DIExpression(DW_OP_LLVM_fragment, 0, 32)), !dbg !7846
  call void @llvm.dbg.value(metadata float %242, metadata !7108, metadata !DIExpression(DW_OP_LLVM_fragment, 32, 32)), !dbg !7846
  call void @llvm.dbg.value(metadata float %243, metadata !7108, metadata !DIExpression(DW_OP_LLVM_fragment, 64, 32)), !dbg !7846
  call void @llvm.dbg.value(metadata %"class.android::details::TVec3"* undef, metadata !7097, metadata !DIExpression(DW_OP_deref)), !dbg !7812
  call void @llvm.dbg.value(metadata %"class.android::details::TVec3"* undef, metadata !7185, metadata !DIExpression()), !dbg !7858
  call void @llvm.dbg.value(metadata %"class.android::details::TVec3"* undef, metadata !7190, metadata !DIExpression()), !dbg !7858
  call void @llvm.dbg.value(metadata float 0.000000e+00, metadata !7191, metadata !DIExpression()), !dbg !7858
  call void @llvm.dbg.value(metadata i32 0, metadata !7192, metadata !DIExpression()), !dbg !7860
  call void @llvm.dbg.value(metadata i32 0, metadata !7192, metadata !DIExpression()), !dbg !7860
  call void @llvm.dbg.value(metadata float 0.000000e+00, metadata !7191, metadata !DIExpression()), !dbg !7858
  call void @llvm.dbg.value(metadata float undef, metadata !7191, metadata !DIExpression()), !dbg !7858
  %244 = fadd float %223, 0.000000e+00, !dbg !7861
  call void @llvm.dbg.value(metadata i32 1, metadata !7192, metadata !DIExpression()), !dbg !7860
  call void @llvm.dbg.value(metadata float %244, metadata !7191, metadata !DIExpression()), !dbg !7858
  call void @llvm.dbg.value(metadata i32 1, metadata !7192, metadata !DIExpression()), !dbg !7860
  call void @llvm.dbg.value(metadata float %244, metadata !7191, metadata !DIExpression()), !dbg !7858
  call void @llvm.dbg.value(metadata float undef, metadata !7191, metadata !DIExpression()), !dbg !7858
  %245 = fadd float %244, %224, !dbg !7861
  call void @llvm.dbg.value(metadata i32 2, metadata !7192, metadata !DIExpression()), !dbg !7860
  call void @llvm.dbg.value(metadata float %245, metadata !7191, metadata !DIExpression()), !dbg !7858
  call void @llvm.dbg.value(metadata i32 2, metadata !7192, metadata !DIExpression()), !dbg !7860
  call void @llvm.dbg.value(metadata float %245, metadata !7191, metadata !DIExpression()), !dbg !7858
  call void @llvm.dbg.value(metadata float undef, metadata !7191, metadata !DIExpression()), !dbg !7858
  %246 = fadd float %245, %225, !dbg !7861
  call void @llvm.dbg.value(metadata i32 3, metadata !7192, metadata !DIExpression()), !dbg !7860
  call void @llvm.dbg.value(metadata float %246, metadata !7191, metadata !DIExpression()), !dbg !7858
  call void @llvm.dbg.value(metadata %"class.android::details::TVec2"* undef, metadata !7202, metadata !DIExpression()), !dbg !7862
  call void @llvm.dbg.value(metadata %"class.android::details::TVecProductOperators.8"* undef, metadata !7210, metadata !DIExpression()), !dbg !7864
  call void @llvm.dbg.value(metadata %"class.android::details::TVec2"* undef, metadata !7213, metadata !DIExpression()), !dbg !7864
  call void @llvm.dbg.value(metadata i32 0, metadata !7215, metadata !DIExpression()), !dbg !7866
  call void @llvm.dbg.value(metadata i32 0, metadata !7215, metadata !DIExpression()), !dbg !7866
  %247 = fdiv float %223, %246, !dbg !7867
  call void @llvm.dbg.value(metadata i32 1, metadata !7215, metadata !DIExpression()), !dbg !7866
  call void @llvm.dbg.value(metadata i32 1, metadata !7215, metadata !DIExpression()), !dbg !7866
  %248 = fdiv float %224, %246, !dbg !7867
  call void @llvm.dbg.value(metadata i32 2, metadata !7215, metadata !DIExpression()), !dbg !7866
  %249 = getelementptr inbounds %"class.android::ColorSpace", %"class.android::ColorSpace"* %0, i32 0, i32 7, i32 0, i32 0, i32 0, i32 0, i32 0, !dbg !7868
  store float %247, float* %249, align 4, !dbg !7868, !alias.scope !7869
  %250 = getelementptr inbounds %"class.android::ColorSpace", %"class.android::ColorSpace"* %0, i32 0, i32 7, i32 0, i32 0, i32 0, i32 0, i32 1, !dbg !7868
  store float %248, float* %250, align 4, !dbg !7868, !alias.scope !7869
  call void @llvm.dbg.value(metadata %"class.android::details::TVec3"* undef, metadata !7098, metadata !DIExpression(DW_OP_deref)), !dbg !7812
  call void @llvm.dbg.value(metadata %"class.android::details::TVec3"* undef, metadata !7185, metadata !DIExpression()), !dbg !7872
  call void @llvm.dbg.value(metadata %"class.android::details::TVec3"* undef, metadata !7190, metadata !DIExpression()), !dbg !7872
  call void @llvm.dbg.value(metadata float 0.000000e+00, metadata !7191, metadata !DIExpression()), !dbg !7872
  call void @llvm.dbg.value(metadata i32 0, metadata !7192, metadata !DIExpression()), !dbg !7874
  call void @llvm.dbg.value(metadata i32 0, metadata !7192, metadata !DIExpression()), !dbg !7874
  call void @llvm.dbg.value(metadata float 0.000000e+00, metadata !7191, metadata !DIExpression()), !dbg !7872
  call void @llvm.dbg.value(metadata float undef, metadata !7191, metadata !DIExpression()), !dbg !7872
  %251 = fadd float %235, 0.000000e+00, !dbg !7875
  call void @llvm.dbg.value(metadata i32 1, metadata !7192, metadata !DIExpression()), !dbg !7874
  call void @llvm.dbg.value(metadata float %251, metadata !7191, metadata !DIExpression()), !dbg !7872
  call void @llvm.dbg.value(metadata i32 1, metadata !7192, metadata !DIExpression()), !dbg !7874
  call void @llvm.dbg.value(metadata float %251, metadata !7191, metadata !DIExpression()), !dbg !7872
  call void @llvm.dbg.value(metadata float undef, metadata !7191, metadata !DIExpression()), !dbg !7872
  %252 = fadd float %251, %236, !dbg !7875
  call void @llvm.dbg.value(metadata i32 2, metadata !7192, metadata !DIExpression()), !dbg !7874
  call void @llvm.dbg.value(metadata float %252, metadata !7191, metadata !DIExpression()), !dbg !7872
  call void @llvm.dbg.value(metadata i32 2, metadata !7192, metadata !DIExpression()), !dbg !7874
  call void @llvm.dbg.value(metadata float %252, metadata !7191, metadata !DIExpression()), !dbg !7872
  call void @llvm.dbg.value(metadata float undef, metadata !7191, metadata !DIExpression()), !dbg !7872
  %253 = fadd float %252, %237, !dbg !7875
  call void @llvm.dbg.value(metadata i32 3, metadata !7192, metadata !DIExpression()), !dbg !7874
  call void @llvm.dbg.value(metadata float %253, metadata !7191, metadata !DIExpression()), !dbg !7872
  call void @llvm.dbg.value(metadata %"class.android::details::TVec2"* undef, metadata !7202, metadata !DIExpression()), !dbg !7876
  call void @llvm.dbg.value(metadata %"class.android::details::TVecProductOperators.8"* undef, metadata !7210, metadata !DIExpression()), !dbg !7878
  call void @llvm.dbg.value(metadata %"class.android::details::TVec2"* undef, metadata !7213, metadata !DIExpression()), !dbg !7878
  call void @llvm.dbg.value(metadata i32 0, metadata !7215, metadata !DIExpression()), !dbg !7880
  call void @llvm.dbg.value(metadata i32 0, metadata !7215, metadata !DIExpression()), !dbg !7880
  %254 = fdiv float %235, %253, !dbg !7881
  call void @llvm.dbg.value(metadata i32 1, metadata !7215, metadata !DIExpression()), !dbg !7880
  call void @llvm.dbg.value(metadata i32 1, metadata !7215, metadata !DIExpression()), !dbg !7880
  %255 = fdiv float %236, %253, !dbg !7881
  call void @llvm.dbg.value(metadata i32 2, metadata !7215, metadata !DIExpression()), !dbg !7880
  %256 = getelementptr inbounds %"class.android::ColorSpace", %"class.android::ColorSpace"* %0, i32 0, i32 7, i32 0, i32 1, i32 0, i32 0, i32 0, !dbg !7882
  store float %254, float* %256, align 4, !dbg !7882, !alias.scope !7883
  %257 = getelementptr inbounds %"class.android::ColorSpace", %"class.android::ColorSpace"* %0, i32 0, i32 7, i32 0, i32 1, i32 0, i32 0, i32 1, !dbg !7882
  store float %255, float* %257, align 4, !dbg !7882, !alias.scope !7883
  call void @llvm.dbg.value(metadata %"class.android::details::TVec3"* undef, metadata !7099, metadata !DIExpression(DW_OP_deref)), !dbg !7812
  call void @llvm.dbg.value(metadata %"class.android::details::TVec3"* undef, metadata !7185, metadata !DIExpression()), !dbg !7886
  call void @llvm.dbg.value(metadata %"class.android::details::TVec3"* undef, metadata !7190, metadata !DIExpression()), !dbg !7886
  call void @llvm.dbg.value(metadata float 0.000000e+00, metadata !7191, metadata !DIExpression()), !dbg !7886
  call void @llvm.dbg.value(metadata i32 0, metadata !7192, metadata !DIExpression()), !dbg !7888
  call void @llvm.dbg.value(metadata i32 0, metadata !7192, metadata !DIExpression()), !dbg !7888
  call void @llvm.dbg.value(metadata float 0.000000e+00, metadata !7191, metadata !DIExpression()), !dbg !7886
  call void @llvm.dbg.value(metadata float undef, metadata !7191, metadata !DIExpression()), !dbg !7886
  %258 = fadd float %241, 0.000000e+00, !dbg !7889
  call void @llvm.dbg.value(metadata i32 1, metadata !7192, metadata !DIExpression()), !dbg !7888
  call void @llvm.dbg.value(metadata float %258, metadata !7191, metadata !DIExpression()), !dbg !7886
  call void @llvm.dbg.value(metadata i32 1, metadata !7192, metadata !DIExpression()), !dbg !7888
  call void @llvm.dbg.value(metadata float %258, metadata !7191, metadata !DIExpression()), !dbg !7886
  call void @llvm.dbg.value(metadata float undef, metadata !7191, metadata !DIExpression()), !dbg !7886
  %259 = fadd float %258, %242, !dbg !7889
  call void @llvm.dbg.value(metadata i32 2, metadata !7192, metadata !DIExpression()), !dbg !7888
  call void @llvm.dbg.value(metadata float %259, metadata !7191, metadata !DIExpression()), !dbg !7886
  call void @llvm.dbg.value(metadata i32 2, metadata !7192, metadata !DIExpression()), !dbg !7888
  call void @llvm.dbg.value(metadata float %259, metadata !7191, metadata !DIExpression()), !dbg !7886
  call void @llvm.dbg.value(metadata float undef, metadata !7191, metadata !DIExpression()), !dbg !7886
  %260 = fadd float %259, %243, !dbg !7889
  call void @llvm.dbg.value(metadata i32 3, metadata !7192, metadata !DIExpression()), !dbg !7888
  call void @llvm.dbg.value(metadata float %260, metadata !7191, metadata !DIExpression()), !dbg !7886
  call void @llvm.dbg.value(metadata %"class.android::details::TVec2"* undef, metadata !7202, metadata !DIExpression()), !dbg !7890
  call void @llvm.dbg.value(metadata %"class.android::details::TVecProductOperators.8"* undef, metadata !7210, metadata !DIExpression()), !dbg !7892
  call void @llvm.dbg.value(metadata %"class.android::details::TVec2"* undef, metadata !7213, metadata !DIExpression()), !dbg !7892
  call void @llvm.dbg.value(metadata i32 0, metadata !7215, metadata !DIExpression()), !dbg !7894
  call void @llvm.dbg.value(metadata i32 0, metadata !7215, metadata !DIExpression()), !dbg !7894
  %261 = fdiv float %241, %260, !dbg !7895
  call void @llvm.dbg.value(metadata i32 1, metadata !7215, metadata !DIExpression()), !dbg !7894
  call void @llvm.dbg.value(metadata i32 1, metadata !7215, metadata !DIExpression()), !dbg !7894
  %262 = fdiv float %242, %260, !dbg !7895
  call void @llvm.dbg.value(metadata i32 2, metadata !7215, metadata !DIExpression()), !dbg !7894
  %263 = getelementptr inbounds %"class.android::ColorSpace", %"class.android::ColorSpace"* %0, i32 0, i32 7, i32 0, i32 2, i32 0, i32 0, i32 0, !dbg !7896
  store float %261, float* %263, align 4, !dbg !7896, !alias.scope !7897
  %264 = getelementptr inbounds %"class.android::ColorSpace", %"class.android::ColorSpace"* %0, i32 0, i32 7, i32 0, i32 2, i32 0, i32 0, i32 1, !dbg !7896
  store float %262, float* %264, align 4, !dbg !7896, !alias.scope !7897
  call void @llvm.dbg.value(metadata %"class.android::details::TMat33"* %2, metadata !7256, metadata !DIExpression()), !dbg !7900
  call void @llvm.dbg.value(metadata %"class.android::details::TVec3"* undef, metadata !7261, metadata !DIExpression(DW_OP_deref)), !dbg !7900
  call void @llvm.dbg.value(metadata %"class.android::details::TMat33"* %2, metadata !7102, metadata !DIExpression()), !dbg !7902
  call void @llvm.dbg.value(metadata %"class.android::details::TVec3"* undef, metadata !7107, metadata !DIExpression()), !dbg !7902
  call void @llvm.dbg.value(metadata i32 0, metadata !7109, metadata !DIExpression()), !dbg !7904
  call void @llvm.dbg.value(metadata i32 0, metadata !7109, metadata !DIExpression()), !dbg !7904
  %265 = load float, float* %18, align 4, !dbg !7905, !noalias !7906
  %266 = load float, float* %197, align 4, !dbg !7905, !noalias !7906
  %267 = load float, float* %199, align 4, !dbg !7905, !noalias !7906
  call void @llvm.dbg.value(metadata %"class.android::details::TVec3"* undef, metadata !7143, metadata !DIExpression()), !dbg !7911
  call void @llvm.dbg.value(metadata %"class.android::details::TVec3"* undef, metadata !7146, metadata !DIExpression()), !dbg !7911
  call void @llvm.dbg.value(metadata i32 0, metadata !7148, metadata !DIExpression()), !dbg !7913
  call void @llvm.dbg.value(metadata i32 0, metadata !7148, metadata !DIExpression()), !dbg !7913
  %268 = fadd float %265, 0.000000e+00, !dbg !7914
  call void @llvm.dbg.value(metadata i32 1, metadata !7148, metadata !DIExpression()), !dbg !7913
  call void @llvm.dbg.value(metadata i32 1, metadata !7148, metadata !DIExpression()), !dbg !7913
  %269 = fadd float %266, 0.000000e+00, !dbg !7914
  call void @llvm.dbg.value(metadata i32 2, metadata !7148, metadata !DIExpression()), !dbg !7913
  call void @llvm.dbg.value(metadata i32 2, metadata !7148, metadata !DIExpression()), !dbg !7913
  %270 = fadd float %267, 0.000000e+00, !dbg !7914
  call void @llvm.dbg.value(metadata i32 3, metadata !7148, metadata !DIExpression()), !dbg !7913
  call void @llvm.dbg.value(metadata i32 1, metadata !7109, metadata !DIExpression()), !dbg !7904
  call void @llvm.dbg.value(metadata i32 1, metadata !7109, metadata !DIExpression()), !dbg !7904
  %271 = load float, float* %20, align 4, !dbg !7905, !noalias !7906
  %272 = load float, float* %205, align 4, !dbg !7905, !noalias !7906
  %273 = load float, float* %207, align 4, !dbg !7905, !noalias !7906
  call void @llvm.dbg.value(metadata %"class.android::details::TVec3"* undef, metadata !7143, metadata !DIExpression()), !dbg !7911
  call void @llvm.dbg.value(metadata %"class.android::details::TVec3"* undef, metadata !7146, metadata !DIExpression()), !dbg !7911
  call void @llvm.dbg.value(metadata i32 0, metadata !7148, metadata !DIExpression()), !dbg !7913
  call void @llvm.dbg.value(metadata i32 0, metadata !7148, metadata !DIExpression()), !dbg !7913
  %274 = fadd float %268, %271, !dbg !7914
  call void @llvm.dbg.value(metadata i32 1, metadata !7148, metadata !DIExpression()), !dbg !7913
  call void @llvm.dbg.value(metadata i32 1, metadata !7148, metadata !DIExpression()), !dbg !7913
  %275 = fadd float %269, %272, !dbg !7914
  call void @llvm.dbg.value(metadata i32 2, metadata !7148, metadata !DIExpression()), !dbg !7913
  call void @llvm.dbg.value(metadata i32 2, metadata !7148, metadata !DIExpression()), !dbg !7913
  %276 = fadd float %270, %273, !dbg !7914
  call void @llvm.dbg.value(metadata i32 3, metadata !7148, metadata !DIExpression()), !dbg !7913
  call void @llvm.dbg.value(metadata i32 2, metadata !7109, metadata !DIExpression()), !dbg !7904
  call void @llvm.dbg.value(metadata i32 2, metadata !7109, metadata !DIExpression()), !dbg !7904
  %277 = load float, float* %22, align 4, !dbg !7905, !noalias !7906
  %278 = load float, float* %216, align 4, !dbg !7905, !noalias !7906
  %279 = load float, float* %218, align 4, !dbg !7905, !noalias !7906
  call void @llvm.dbg.value(metadata %"class.android::details::TVec3"* undef, metadata !7143, metadata !DIExpression()), !dbg !7911
  call void @llvm.dbg.value(metadata %"class.android::details::TVec3"* undef, metadata !7146, metadata !DIExpression()), !dbg !7911
  call void @llvm.dbg.value(metadata i32 0, metadata !7148, metadata !DIExpression()), !dbg !7913
  call void @llvm.dbg.value(metadata i32 0, metadata !7148, metadata !DIExpression()), !dbg !7913
  %280 = fadd float %274, %277, !dbg !7914
  call void @llvm.dbg.value(metadata i32 1, metadata !7148, metadata !DIExpression()), !dbg !7913
  call void @llvm.dbg.value(metadata i32 1, metadata !7148, metadata !DIExpression()), !dbg !7913
  %281 = fadd float %275, %278, !dbg !7914
  call void @llvm.dbg.value(metadata i32 2, metadata !7148, metadata !DIExpression()), !dbg !7913
  call void @llvm.dbg.value(metadata i32 2, metadata !7148, metadata !DIExpression()), !dbg !7913
  %282 = fadd float %276, %279, !dbg !7914
  call void @llvm.dbg.value(metadata i32 3, metadata !7148, metadata !DIExpression()), !dbg !7913
  call void @llvm.dbg.value(metadata i32 3, metadata !7109, metadata !DIExpression()), !dbg !7904
  call void @llvm.dbg.value(metadata float %280, metadata !7108, metadata !DIExpression(DW_OP_LLVM_fragment, 0, 32)), !dbg !7902
  call void @llvm.dbg.value(metadata float %281, metadata !7108, metadata !DIExpression(DW_OP_LLVM_fragment, 32, 32)), !dbg !7902
  call void @llvm.dbg.value(metadata float %282, metadata !7108, metadata !DIExpression(DW_OP_LLVM_fragment, 64, 32)), !dbg !7902
  call void @llvm.dbg.value(metadata %"class.android::details::TVec3"* undef, metadata !7261, metadata !DIExpression(DW_OP_deref)), !dbg !7900
  call void @llvm.dbg.value(metadata %"class.android::details::TVec3"* undef, metadata !7185, metadata !DIExpression()), !dbg !7915
  call void @llvm.dbg.value(metadata %"class.android::details::TVec3"* undef, metadata !7190, metadata !DIExpression()), !dbg !7915
  call void @llvm.dbg.value(metadata float 0.000000e+00, metadata !7191, metadata !DIExpression()), !dbg !7915
  call void @llvm.dbg.value(metadata i32 0, metadata !7192, metadata !DIExpression()), !dbg !7917
  call void @llvm.dbg.value(metadata i32 0, metadata !7192, metadata !DIExpression()), !dbg !7917
  call void @llvm.dbg.value(metadata float 0.000000e+00, metadata !7191, metadata !DIExpression()), !dbg !7915
  call void @llvm.dbg.value(metadata float undef, metadata !7191, metadata !DIExpression()), !dbg !7915
  %283 = fadd float %280, 0.000000e+00, !dbg !7918
  call void @llvm.dbg.value(metadata i32 1, metadata !7192, metadata !DIExpression()), !dbg !7917
  call void @llvm.dbg.value(metadata float %283, metadata !7191, metadata !DIExpression()), !dbg !7915
  call void @llvm.dbg.value(metadata i32 1, metadata !7192, metadata !DIExpression()), !dbg !7917
  call void @llvm.dbg.value(metadata float %283, metadata !7191, metadata !DIExpression()), !dbg !7915
  call void @llvm.dbg.value(metadata float undef, metadata !7191, metadata !DIExpression()), !dbg !7915
  %284 = fadd float %283, %281, !dbg !7918
  call void @llvm.dbg.value(metadata i32 2, metadata !7192, metadata !DIExpression()), !dbg !7917
  call void @llvm.dbg.value(metadata float %284, metadata !7191, metadata !DIExpression()), !dbg !7915
  call void @llvm.dbg.value(metadata i32 2, metadata !7192, metadata !DIExpression()), !dbg !7917
  call void @llvm.dbg.value(metadata float %284, metadata !7191, metadata !DIExpression()), !dbg !7915
  call void @llvm.dbg.value(metadata float undef, metadata !7191, metadata !DIExpression()), !dbg !7915
  %285 = fadd float %284, %282, !dbg !7918
  call void @llvm.dbg.value(metadata i32 3, metadata !7192, metadata !DIExpression()), !dbg !7917
  call void @llvm.dbg.value(metadata float %285, metadata !7191, metadata !DIExpression()), !dbg !7915
  call void @llvm.dbg.value(metadata %"class.android::details::TVec2"* undef, metadata !7202, metadata !DIExpression()), !dbg !7919
  call void @llvm.dbg.value(metadata %"class.android::details::TVecProductOperators.8"* undef, metadata !7210, metadata !DIExpression()), !dbg !7921
  call void @llvm.dbg.value(metadata %"class.android::details::TVec2"* undef, metadata !7213, metadata !DIExpression()), !dbg !7921
  call void @llvm.dbg.value(metadata i32 0, metadata !7215, metadata !DIExpression()), !dbg !7923
  call void @llvm.dbg.value(metadata i32 0, metadata !7215, metadata !DIExpression()), !dbg !7923
  %286 = fdiv float %280, %285, !dbg !7924
  call void @llvm.dbg.value(metadata i32 1, metadata !7215, metadata !DIExpression()), !dbg !7923
  call void @llvm.dbg.value(metadata i32 1, metadata !7215, metadata !DIExpression()), !dbg !7923
  %287 = fdiv float %281, %285, !dbg !7924
  call void @llvm.dbg.value(metadata i32 2, metadata !7215, metadata !DIExpression()), !dbg !7923
  %288 = getelementptr inbounds %"class.android::ColorSpace", %"class.android::ColorSpace"* %0, i32 0, i32 8, i32 0, i32 0, i32 0, !dbg !7925
  store float %286, float* %288, align 4, !dbg !7925, !alias.scope !7926
  %289 = getelementptr inbounds %"class.android::ColorSpace", %"class.android::ColorSpace"* %0, i32 0, i32 8, i32 0, i32 0, i32 1, !dbg !7925
  store float %287, float* %289, align 4, !dbg !7925, !alias.scope !7926
  ret %"class.android::ColorSpace"* %0, !dbg !7929
}

; Function Attrs: nounwind sspstrong uwtable
define %"class.android::ColorSpace"* @_ZN7android10ColorSpaceC2ERKNSt3__112basic_stringIcNS1_11char_traitsIcEENS1_9allocatorIcEEEERKNS_7details6TMat33IfEEfNS1_8functionIFffEEE(%"class.android::ColorSpace"* returned, %"class.std::__1::basic_string"* dereferenceable(12), %"class.android::details::TMat33"* readonly dereferenceable(36), float, %"class.std::__1::function"*) unnamed_addr #0 align 2 !dbg !7930 {
  call void @llvm.dbg.value(metadata %"class.android::ColorSpace"* %0, metadata !7932, metadata !DIExpression()), !dbg !7937
  call void @llvm.dbg.value(metadata %"class.std::__1::basic_string"* %1, metadata !7933, metadata !DIExpression()), !dbg !7937
  call void @llvm.dbg.value(metadata %"class.android::details::TMat33"* %2, metadata !7934, metadata !DIExpression()), !dbg !7937
  call void @llvm.dbg.value(metadata float %3, metadata !7935, metadata !DIExpression()), !dbg !7937
  call void @llvm.dbg.declare(metadata %"class.std::__1::function"* %4, metadata !7936, metadata !DIExpression()), !dbg !7938
  %6 = getelementptr inbounds %"class.android::ColorSpace", %"class.android::ColorSpace"* %0, i32 0, i32 0, !dbg !7939
  %7 = tail call %"class.std::__1::basic_string"* @_ZNSt3__112basic_stringIcNS_11char_traitsIcEENS_9allocatorIcEEEC1ERKS5_(%"class.std::__1::basic_string"* %6, %"class.std::__1::basic_string"* nonnull dereferenceable(12) %1) #13, !dbg !7939
  %8 = getelementptr inbounds %"class.android::ColorSpace", %"class.android::ColorSpace"* %0, i32 0, i32 1, !dbg !7940
  %9 = bitcast %"class.android::details::TMat33"* %8 to i8*, !dbg !7940
  %10 = bitcast %"class.android::details::TMat33"* %2 to i8*, !dbg !7940
  tail call void @llvm.memcpy.p0i8.p0i8.i32(i8* nonnull align 4 %9, i8* nonnull align 4 %10, i32 36, i1 false), !dbg !7940
  call void @llvm.dbg.value(metadata %"class.android::details::TMat33"* %2, metadata !6841, metadata !DIExpression()), !dbg !7941
  call void @llvm.dbg.value(metadata %"class.android::details::TMat33"* %2, metadata !6846, metadata !DIExpression()), !dbg !7943
  call void @llvm.dbg.value(metadata %"class.android::details::TMat33"* %2, metadata !6851, metadata !DIExpression()), !dbg !7945
  call void @llvm.dbg.declare(metadata %"class.android::ColorSpace"* %0, metadata !6854, metadata !DIExpression(DW_OP_plus_uconst, 48)), !dbg !7947
  call void @llvm.dbg.value(metadata %"class.android::details::TMat33"* %2, metadata !6879, metadata !DIExpression()), !dbg !7948
  call void @llvm.dbg.value(metadata i32 0, metadata !6882, metadata !DIExpression()), !dbg !7948
  %11 = getelementptr inbounds %"class.android::details::TMat33", %"class.android::details::TMat33"* %2, i32 0, i32 0, i32 0, i32 0, i32 0, i32 0, !dbg !7950
  %12 = load float, float* %11, align 4, !dbg !7951, !noalias !7952
  call void @llvm.dbg.value(metadata float %12, metadata !6855, metadata !DIExpression()), !dbg !7945
  call void @llvm.dbg.value(metadata %"class.android::details::TMat33"* %2, metadata !6879, metadata !DIExpression(DW_OP_plus_uconst, 12, DW_OP_stack_value)), !dbg !7959
  call void @llvm.dbg.value(metadata i32 0, metadata !6882, metadata !DIExpression()), !dbg !7959
  %13 = getelementptr inbounds %"class.android::details::TMat33", %"class.android::details::TMat33"* %2, i32 0, i32 0, i32 1, i32 0, i32 0, i32 0, !dbg !7961
  %14 = load float, float* %13, align 4, !dbg !7962, !noalias !7952
  call void @llvm.dbg.value(metadata float %14, metadata !6858, metadata !DIExpression()), !dbg !7945
  call void @llvm.dbg.value(metadata %"class.android::details::TMat33"* %2, metadata !6879, metadata !DIExpression(DW_OP_plus_uconst, 24, DW_OP_stack_value)), !dbg !7963
  call void @llvm.dbg.value(metadata i32 0, metadata !6882, metadata !DIExpression()), !dbg !7963
  %15 = getelementptr inbounds %"class.android::details::TMat33", %"class.android::details::TMat33"* %2, i32 0, i32 0, i32 2, i32 0, i32 0, i32 0, !dbg !7965
  %16 = load float, float* %15, align 4, !dbg !7966, !noalias !7952
  call void @llvm.dbg.value(metadata float %16, metadata !6859, metadata !DIExpression()), !dbg !7945
  call void @llvm.dbg.value(metadata %"class.android::details::TMat33"* %2, metadata !6879, metadata !DIExpression()), !dbg !7967
  call void @llvm.dbg.value(metadata i32 1, metadata !6882, metadata !DIExpression()), !dbg !7967
  %17 = getelementptr inbounds float, float* %11, i32 1, !dbg !7969
  %18 = load float, float* %17, align 4, !dbg !7970, !noalias !7952
  call void @llvm.dbg.value(metadata float %18, metadata !6860, metadata !DIExpression()), !dbg !7945
  call void @llvm.dbg.value(metadata %"class.android::details::TMat33"* %2, metadata !6879, metadata !DIExpression(DW_OP_plus_uconst, 12, DW_OP_stack_value)), !dbg !7971
  call void @llvm.dbg.value(metadata i32 1, metadata !6882, metadata !DIExpression()), !dbg !7971
  %19 = getelementptr inbounds float, float* %13, i32 1, !dbg !7973
  %20 = load float, float* %19, align 4, !dbg !7974, !noalias !7952
  call void @llvm.dbg.value(metadata float %20, metadata !6861, metadata !DIExpression()), !dbg !7945
  call void @llvm.dbg.value(metadata %"class.android::details::TMat33"* %2, metadata !6879, metadata !DIExpression(DW_OP_plus_uconst, 24, DW_OP_stack_value)), !dbg !7975
  call void @llvm.dbg.value(metadata i32 1, metadata !6882, metadata !DIExpression()), !dbg !7975
  %21 = getelementptr inbounds float, float* %15, i32 1, !dbg !7977
  %22 = load float, float* %21, align 4, !dbg !7978, !noalias !7952
  call void @llvm.dbg.value(metadata float %22, metadata !6862, metadata !DIExpression()), !dbg !7945
  call void @llvm.dbg.value(metadata %"class.android::details::TMat33"* %2, metadata !6879, metadata !DIExpression()), !dbg !7979
  call void @llvm.dbg.value(metadata i32 2, metadata !6882, metadata !DIExpression()), !dbg !7979
  %23 = getelementptr inbounds float, float* %11, i32 2, !dbg !7981
  %24 = load float, float* %23, align 4, !dbg !7982, !noalias !7952
  call void @llvm.dbg.value(metadata float %24, metadata !6863, metadata !DIExpression()), !dbg !7945
  call void @llvm.dbg.value(metadata %"class.android::details::TMat33"* %2, metadata !6879, metadata !DIExpression(DW_OP_plus_uconst, 12, DW_OP_stack_value)), !dbg !7983
  call void @llvm.dbg.value(metadata i32 2, metadata !6882, metadata !DIExpression()), !dbg !7983
  %25 = getelementptr inbounds float, float* %13, i32 2, !dbg !7985
  %26 = load float, float* %25, align 4, !dbg !7986, !noalias !7952
  call void @llvm.dbg.value(metadata float %26, metadata !6864, metadata !DIExpression()), !dbg !7945
  call void @llvm.dbg.value(metadata %"class.android::details::TMat33"* %2, metadata !6879, metadata !DIExpression(DW_OP_plus_uconst, 24, DW_OP_stack_value)), !dbg !7987
  call void @llvm.dbg.value(metadata i32 2, metadata !6882, metadata !DIExpression()), !dbg !7987
  %27 = getelementptr inbounds float, float* %15, i32 2, !dbg !7989
  %28 = load float, float* %27, align 4, !dbg !7990, !noalias !7952
  call void @llvm.dbg.value(metadata float %28, metadata !6865, metadata !DIExpression()), !dbg !7945
  %29 = fmul float %20, %28, !dbg !7991
  %30 = fmul float %22, %26, !dbg !7992
  %31 = fsub float %29, %30, !dbg !7993
  call void @llvm.dbg.value(metadata float %31, metadata !6866, metadata !DIExpression()), !dbg !7945
  %32 = fmul float %22, %24, !dbg !7994
  %33 = fmul float %18, %28, !dbg !7995
  %34 = fsub float %32, %33, !dbg !7996
  call void @llvm.dbg.value(metadata float %34, metadata !6867, metadata !DIExpression()), !dbg !7945
  %35 = fmul float %18, %26, !dbg !7997
  %36 = fmul float %20, %24, !dbg !7998
  %37 = fsub float %35, %36, !dbg !7999
  call void @llvm.dbg.value(metadata float %37, metadata !6868, metadata !DIExpression()), !dbg !7945
  call void @llvm.dbg.value(metadata %"class.android::ColorSpace"* %0, metadata !6936, metadata !DIExpression(DW_OP_plus_uconst, 48, DW_OP_stack_value)), !dbg !8000
  call void @llvm.dbg.value(metadata i32 0, metadata !6939, metadata !DIExpression()), !dbg !8000
  %38 = getelementptr inbounds %"class.android::ColorSpace", %"class.android::ColorSpace"* %0, i32 0, i32 2, i32 0, i32 0, i32 0, i32 0, i32 0, !dbg !8002
  call void @llvm.dbg.value(metadata %"class.android::ColorSpace"* %0, metadata !6936, metadata !DIExpression(DW_OP_plus_uconst, 48, DW_OP_stack_value)), !dbg !8003
  call void @llvm.dbg.value(metadata i32 1, metadata !6939, metadata !DIExpression()), !dbg !8003
  %39 = getelementptr inbounds float, float* %38, i32 1, !dbg !8005
  call void @llvm.dbg.value(metadata %"class.android::ColorSpace"* %0, metadata !6936, metadata !DIExpression(DW_OP_plus_uconst, 48, DW_OP_stack_value)), !dbg !8006
  call void @llvm.dbg.value(metadata i32 2, metadata !6939, metadata !DIExpression()), !dbg !8006
  %40 = getelementptr inbounds float, float* %38, i32 2, !dbg !8008
  %41 = fmul float %16, %26, !dbg !8009
  %42 = fmul float %14, %28, !dbg !8010
  %43 = fsub float %41, %42, !dbg !8011
  call void @llvm.dbg.value(metadata %"class.android::ColorSpace"* %0, metadata !6936, metadata !DIExpression(DW_OP_plus_uconst, 48, DW_OP_plus_uconst, 12, DW_OP_stack_value)), !dbg !8012
  call void @llvm.dbg.value(metadata i32 0, metadata !6939, metadata !DIExpression()), !dbg !8012
  %44 = getelementptr inbounds %"class.android::ColorSpace", %"class.android::ColorSpace"* %0, i32 0, i32 2, i32 0, i32 1, i32 0, i32 0, i32 0, !dbg !8014
  %45 = fmul float %12, %28, !dbg !8015
  %46 = fmul float %16, %24, !dbg !8016
  %47 = fsub float %45, %46, !dbg !8017
  call void @llvm.dbg.value(metadata %"class.android::ColorSpace"* %0, metadata !6936, metadata !DIExpression(DW_OP_plus_uconst, 48, DW_OP_plus_uconst, 12, DW_OP_stack_value)), !dbg !8018
  call void @llvm.dbg.value(metadata i32 1, metadata !6939, metadata !DIExpression()), !dbg !8018
  %48 = getelementptr inbounds float, float* %44, i32 1, !dbg !8020
  %49 = fmul float %14, %24, !dbg !8021
  %50 = fmul float %12, %26, !dbg !8022
  %51 = fsub float %49, %50, !dbg !8023
  call void @llvm.dbg.value(metadata %"class.android::ColorSpace"* %0, metadata !6936, metadata !DIExpression(DW_OP_plus_uconst, 48, DW_OP_plus_uconst, 12, DW_OP_stack_value)), !dbg !8024
  call void @llvm.dbg.value(metadata i32 2, metadata !6939, metadata !DIExpression()), !dbg !8024
  %52 = getelementptr inbounds float, float* %44, i32 2, !dbg !8026
  %53 = fmul float %14, %22, !dbg !8027
  %54 = fmul float %16, %20, !dbg !8028
  %55 = fsub float %53, %54, !dbg !8029
  call void @llvm.dbg.value(metadata %"class.android::ColorSpace"* %0, metadata !6936, metadata !DIExpression(DW_OP_plus_uconst, 48, DW_OP_plus_uconst, 24, DW_OP_stack_value)), !dbg !8030
  call void @llvm.dbg.value(metadata i32 0, metadata !6939, metadata !DIExpression()), !dbg !8030
  %56 = getelementptr inbounds %"class.android::ColorSpace", %"class.android::ColorSpace"* %0, i32 0, i32 2, i32 0, i32 2, i32 0, i32 0, i32 0, !dbg !8032
  %57 = fmul float %16, %18, !dbg !8033
  %58 = fmul float %12, %22, !dbg !8034
  %59 = fsub float %57, %58, !dbg !8035
  call void @llvm.dbg.value(metadata %"class.android::ColorSpace"* %0, metadata !6936, metadata !DIExpression(DW_OP_plus_uconst, 48, DW_OP_plus_uconst, 24, DW_OP_stack_value)), !dbg !8036
  call void @llvm.dbg.value(metadata i32 1, metadata !6939, metadata !DIExpression()), !dbg !8036
  %60 = getelementptr inbounds float, float* %56, i32 1, !dbg !8038
  %61 = fmul float %12, %20, !dbg !8039
  %62 = fmul float %14, %18, !dbg !8040
  %63 = fsub float %61, %62, !dbg !8041
  call void @llvm.dbg.value(metadata %"class.android::ColorSpace"* %0, metadata !6936, metadata !DIExpression(DW_OP_plus_uconst, 48, DW_OP_plus_uconst, 24, DW_OP_stack_value)), !dbg !8042
  call void @llvm.dbg.value(metadata i32 2, metadata !6939, metadata !DIExpression()), !dbg !8042
  %64 = getelementptr inbounds float, float* %56, i32 2, !dbg !8044
  %65 = fmul float %12, %31, !dbg !8045
  %66 = fmul float %14, %34, !dbg !8046
  %67 = fadd float %65, %66, !dbg !8047
  %68 = fmul float %16, %37, !dbg !8048
  %69 = fadd float %68, %67, !dbg !8049
  call void @llvm.dbg.value(metadata float %69, metadata !6869, metadata !DIExpression()), !dbg !7945
  call void @llvm.dbg.value(metadata i32 0, metadata !6870, metadata !DIExpression()), !dbg !8050
  call void @llvm.dbg.value(metadata i32 0, metadata !6870, metadata !DIExpression()), !dbg !8050
  call void @llvm.dbg.value(metadata i32 0, metadata !6872, metadata !DIExpression()), !dbg !8051
  call void @llvm.dbg.value(metadata i32 0, metadata !6872, metadata !DIExpression()), !dbg !8051
  call void @llvm.dbg.value(metadata i32 0, metadata !6939, metadata !DIExpression()), !dbg !8052
  %70 = fdiv float %31, %69, !dbg !8054
  store float %70, float* %38, align 4, !dbg !8054, !alias.scope !7952
  call void @llvm.dbg.value(metadata i32 1, metadata !6872, metadata !DIExpression()), !dbg !8051
  call void @llvm.dbg.value(metadata i32 1, metadata !6872, metadata !DIExpression()), !dbg !8051
  call void @llvm.dbg.value(metadata i32 1, metadata !6939, metadata !DIExpression()), !dbg !8052
  %71 = fdiv float %34, %69, !dbg !8054
  store float %71, float* %39, align 4, !dbg !8054, !alias.scope !7952
  call void @llvm.dbg.value(metadata i32 2, metadata !6872, metadata !DIExpression()), !dbg !8051
  call void @llvm.dbg.value(metadata i32 2, metadata !6872, metadata !DIExpression()), !dbg !8051
  call void @llvm.dbg.value(metadata i32 2, metadata !6939, metadata !DIExpression()), !dbg !8052
  %72 = fdiv float %37, %69, !dbg !8054
  store float %72, float* %40, align 4, !dbg !8054, !alias.scope !7952
  call void @llvm.dbg.value(metadata i32 3, metadata !6872, metadata !DIExpression()), !dbg !8051
  call void @llvm.dbg.value(metadata i32 1, metadata !6870, metadata !DIExpression()), !dbg !8050
  call void @llvm.dbg.value(metadata i32 1, metadata !6870, metadata !DIExpression()), !dbg !8050
  call void @llvm.dbg.value(metadata i32 0, metadata !6872, metadata !DIExpression()), !dbg !8051
  call void @llvm.dbg.value(metadata i32 0, metadata !6872, metadata !DIExpression()), !dbg !8051
  call void @llvm.dbg.value(metadata i32 0, metadata !6939, metadata !DIExpression()), !dbg !8052
  %73 = fdiv float %43, %69, !dbg !8054
  store float %73, float* %44, align 4, !dbg !8054, !alias.scope !7952
  call void @llvm.dbg.value(metadata i32 1, metadata !6872, metadata !DIExpression()), !dbg !8051
  call void @llvm.dbg.value(metadata i32 1, metadata !6872, metadata !DIExpression()), !dbg !8051
  call void @llvm.dbg.value(metadata i32 1, metadata !6939, metadata !DIExpression()), !dbg !8052
  %74 = fdiv float %47, %69, !dbg !8054
  store float %74, float* %48, align 4, !dbg !8054, !alias.scope !7952
  call void @llvm.dbg.value(metadata i32 2, metadata !6872, metadata !DIExpression()), !dbg !8051
  call void @llvm.dbg.value(metadata i32 2, metadata !6872, metadata !DIExpression()), !dbg !8051
  call void @llvm.dbg.value(metadata i32 2, metadata !6939, metadata !DIExpression()), !dbg !8052
  %75 = fdiv float %51, %69, !dbg !8054
  store float %75, float* %52, align 4, !dbg !8054, !alias.scope !7952
  call void @llvm.dbg.value(metadata i32 3, metadata !6872, metadata !DIExpression()), !dbg !8051
  call void @llvm.dbg.value(metadata i32 2, metadata !6870, metadata !DIExpression()), !dbg !8050
  call void @llvm.dbg.value(metadata i32 2, metadata !6870, metadata !DIExpression()), !dbg !8050
  call void @llvm.dbg.value(metadata i32 0, metadata !6872, metadata !DIExpression()), !dbg !8051
  call void @llvm.dbg.value(metadata i32 0, metadata !6872, metadata !DIExpression()), !dbg !8051
  call void @llvm.dbg.value(metadata i32 0, metadata !6939, metadata !DIExpression()), !dbg !8052
  %76 = fdiv float %55, %69, !dbg !8054
  store float %76, float* %56, align 4, !dbg !8054, !alias.scope !7952
  call void @llvm.dbg.value(metadata i32 1, metadata !6872, metadata !DIExpression()), !dbg !8051
  call void @llvm.dbg.value(metadata i32 1, metadata !6872, metadata !DIExpression()), !dbg !8051
  call void @llvm.dbg.value(metadata i32 1, metadata !6939, metadata !DIExpression()), !dbg !8052
  %77 = fdiv float %59, %69, !dbg !8054
  store float %77, float* %60, align 4, !dbg !8054, !alias.scope !7952
  call void @llvm.dbg.value(metadata i32 2, metadata !6872, metadata !DIExpression()), !dbg !8051
  call void @llvm.dbg.value(metadata i32 2, metadata !6872, metadata !DIExpression()), !dbg !8051
  call void @llvm.dbg.value(metadata i32 2, metadata !6939, metadata !DIExpression()), !dbg !8052
  %78 = fdiv float %63, %69, !dbg !8054
  store float %78, float* %64, align 4, !dbg !8054, !alias.scope !7952
  call void @llvm.dbg.value(metadata i32 3, metadata !6872, metadata !DIExpression()), !dbg !8051
  call void @llvm.dbg.value(metadata i32 3, metadata !6870, metadata !DIExpression()), !dbg !8050
  %79 = getelementptr inbounds %"class.android::ColorSpace", %"class.android::ColorSpace"* %0, i32 0, i32 3, i32 0, !dbg !8055
  store float %3, float* %79, align 4, !dbg !8055
  %80 = getelementptr inbounds %"class.android::ColorSpace", %"class.android::ColorSpace"* %0, i32 0, i32 3, i32 1, !dbg !8055
  store float 1.000000e+00, float* %80, align 4, !dbg !8055
  %81 = getelementptr inbounds %"class.android::ColorSpace", %"class.android::ColorSpace"* %0, i32 0, i32 3, i32 2, !dbg !8055
  %82 = getelementptr inbounds %"class.android::ColorSpace", %"class.android::ColorSpace"* %0, i32 0, i32 4, !dbg !8056
  call void @llvm.dbg.value(metadata float %3, metadata !8057, metadata !DIExpression()), !dbg !8062
  %83 = fcmp oeq float %3, 1.000000e+00, !dbg !8064
  %84 = bitcast float* %81 to i8*, !dbg !8066
  call void @llvm.memset.p0i8.i64(i8* nonnull align 4 %84, i8 0, i64 20, i1 false), !dbg !8055
  br i1 %83, label %85, label %95, !dbg !8066

85:                                               ; preds = %5
  call void @llvm.dbg.value(metadata %"class.std::__1::function"* %82, metadata !8067, metadata !DIExpression()), !dbg !8076
  call void @llvm.dbg.value(metadata float (float)* @_ZN7androidL14linearResponseEf, metadata !8075, metadata !DIExpression()), !dbg !8076
  %86 = getelementptr inbounds %"class.android::ColorSpace", %"class.android::ColorSpace"* %0, i32 0, i32 4, i32 1, !dbg !8079
  call void @llvm.dbg.value(metadata float (float)* @_ZN7androidL14linearResponseEf, metadata !8075, metadata !DIExpression()), !dbg !8076
  call void @llvm.dbg.value(metadata float (float)** undef, metadata !8075, metadata !DIExpression(DW_OP_deref)), !dbg !8076
  call void @llvm.dbg.value(metadata %"class.std::__1::function"* %82, metadata !8080, metadata !DIExpression()), !dbg !8084
  call void @llvm.dbg.value(metadata float (float)** undef, metadata !8083, metadata !DIExpression()), !dbg !8084
  %87 = bitcast %"class.std::__1::function"* %82 to i32 (...)***, !dbg !8091
  store i32 (...)** bitcast (i8** getelementptr inbounds ({ [9 x i8*] }, { [9 x i8*] }* @_ZTVNSt3__110__function6__funcIPFffENS_9allocatorIS3_EES2_EE, i32 0, inrange i32 0, i32 2) to i32 (...)**), i32 (...)*** %87, align 4, !dbg !8091, !alias.scope !8092
  %88 = getelementptr inbounds %"class.android::ColorSpace", %"class.android::ColorSpace"* %0, i32 0, i32 4, i32 0, i32 0, i32 4, !dbg !8095
  call void @llvm.dbg.value(metadata %"class.std::__1::tuple.154"* undef, metadata !8096, metadata !DIExpression(DW_OP_deref)), !dbg !8121
  call void @llvm.dbg.value(metadata %"class.std::__1::tuple.154"* undef, metadata !8123, metadata !DIExpression(DW_OP_deref)), !dbg !8135
  %89 = bitcast i8* %88 to i32*, !dbg !8137
  call void @llvm.dbg.value(metadata i32* %89, metadata !8117, metadata !DIExpression()), !dbg !8121
  call void @llvm.dbg.value(metadata i32* %89, metadata !8131, metadata !DIExpression()), !dbg !8135
  store i32 ptrtoint (float (float)* @_ZN7androidL14linearResponseEf to i32), i32* %89, align 4, !dbg !8137, !alias.scope !8092
  %90 = bitcast %"class.std::__1::__function::__base"** %86 to %"class.std::__1::function"**, !dbg !8138
  store %"class.std::__1::function"* %82, %"class.std::__1::function"** %90, align 8, !dbg !8138, !alias.scope !8092
  %91 = getelementptr inbounds %"class.android::ColorSpace", %"class.android::ColorSpace"* %0, i32 0, i32 5, !dbg !8139
  call void @llvm.dbg.value(metadata float %3, metadata !8140, metadata !DIExpression()), !dbg !8143
  call void @llvm.dbg.value(metadata %"class.std::__1::function"* %106, metadata !8067, metadata !DIExpression()), !dbg !8145
  call void @llvm.dbg.value(metadata float (float)* @_ZN7androidL14linearResponseEf, metadata !8075, metadata !DIExpression()), !dbg !8145
  call void @llvm.dbg.value(metadata float (float)* @_ZN7androidL14linearResponseEf, metadata !8075, metadata !DIExpression()), !dbg !8145
  call void @llvm.dbg.value(metadata float (float)** undef, metadata !8075, metadata !DIExpression(DW_OP_deref)), !dbg !8145
  call void @llvm.dbg.value(metadata %"class.std::__1::function"* %106, metadata !8080, metadata !DIExpression()), !dbg !8149
  call void @llvm.dbg.value(metadata float (float)** undef, metadata !8083, metadata !DIExpression()), !dbg !8149
  %92 = bitcast %"class.std::__1::function"* %91 to i32 (...)***, !dbg !8151
  store i32 (...)** bitcast (i8** getelementptr inbounds ({ [9 x i8*] }, { [9 x i8*] }* @_ZTVNSt3__110__function6__funcIPFffENS_9allocatorIS3_EES2_EE, i32 0, inrange i32 0, i32 2) to i32 (...)**), i32 (...)*** %92, align 4, !dbg !8151, !alias.scope !8152
  %93 = getelementptr inbounds %"class.android::ColorSpace", %"class.android::ColorSpace"* %0, i32 0, i32 5, i32 0, i32 0, i32 4, !dbg !8155
  call void @llvm.dbg.value(metadata %"class.std::__1::tuple.154"* undef, metadata !8096, metadata !DIExpression(DW_OP_deref)), !dbg !8156
  call void @llvm.dbg.value(metadata %"class.std::__1::tuple.154"* undef, metadata !8123, metadata !DIExpression(DW_OP_deref)), !dbg !8158
  %94 = bitcast i8* %93 to i32*, !dbg !8160
  call void @llvm.dbg.value(metadata i32* %94, metadata !8117, metadata !DIExpression()), !dbg !8156
  call void @llvm.dbg.value(metadata i32* %94, metadata !8131, metadata !DIExpression()), !dbg !8158
  store i32 ptrtoint (float (float)* @_ZN7androidL14linearResponseEf to i32), i32* %94, align 4, !dbg !8160, !alias.scope !8152
  br label %114, !dbg !8161

95:                                               ; preds = %5
  %96 = fdiv float 1.000000e+00, %3, !dbg !8162
  %97 = bitcast float %96 to i32, !dbg !8163
  call void @llvm.dbg.value(metadata %"class.std::__1::function"* %82, metadata !8164, metadata !DIExpression()), !dbg !8173
  %98 = getelementptr inbounds %"class.android::ColorSpace", %"class.android::ColorSpace"* %0, i32 0, i32 4, i32 1, !dbg !8175
  call void @llvm.dbg.value(metadata %"class.std::__1::__bind.81"* undef, metadata !8172, metadata !DIExpression(DW_OP_deref)), !dbg !8173
  call void @llvm.dbg.value(metadata %"class.std::__1::__bind.81"* undef, metadata !8172, metadata !DIExpression(DW_OP_deref)), !dbg !8173
  call void @llvm.dbg.value(metadata %"class.std::__1::function"* %82, metadata !8176, metadata !DIExpression()), !dbg !8180
  call void @llvm.dbg.value(metadata %"class.std::__1::__bind.81"* undef, metadata !8179, metadata !DIExpression()), !dbg !8180
  %99 = bitcast %"class.std::__1::function"* %82 to i32 (...)***, !dbg !8187
  store i32 (...)** bitcast (i8** getelementptr inbounds ({ [9 x i8*] }, { [9 x i8*] }* @_ZTVNSt3__110__function6__funcINS_6__bindIRFfffEJRKNS_12placeholders4__phILi1EEEfEEENS_9allocatorISA_EEFffEEE, i32 0, inrange i32 0, i32 2) to i32 (...)**), i32 (...)*** %99, align 4, !dbg !8187, !alias.scope !8092
  %100 = getelementptr inbounds %"class.android::ColorSpace", %"class.android::ColorSpace"* %0, i32 0, i32 4, i32 0, i32 0, i32 4, !dbg !8188
  call void @llvm.dbg.value(metadata %"class.std::__1::tuple.93"* undef, metadata !8189, metadata !DIExpression(DW_OP_deref)), !dbg !8201
  call void @llvm.dbg.value(metadata %"class.std::__1::tuple.93"* undef, metadata !8203, metadata !DIExpression(DW_OP_deref)), !dbg !8215
  %101 = bitcast i8* %100 to i64*, !dbg !8217
  call void @llvm.dbg.value(metadata i64* %101, metadata !8197, metadata !DIExpression()), !dbg !8201
  call void @llvm.dbg.value(metadata i64* %101, metadata !8211, metadata !DIExpression()), !dbg !8215
  %102 = zext i32 %97 to i64, !dbg !8217
  %103 = shl nuw i64 %102, 32, !dbg !8217
  %104 = or i64 %103, zext (i32 ptrtoint (float (float, float)* @_ZN7androidL7safePowEff to i32) to i64), !dbg !8217
  store i64 %104, i64* %101, align 4, !dbg !8217, !alias.scope !8092
  %105 = bitcast %"class.std::__1::__function::__base"** %98 to %"class.std::__1::function"**, !dbg !8218
  store %"class.std::__1::function"* %82, %"class.std::__1::function"** %105, align 8, !dbg !8218, !alias.scope !8092
  %106 = getelementptr inbounds %"class.android::ColorSpace", %"class.android::ColorSpace"* %0, i32 0, i32 5, !dbg !8139
  call void @llvm.dbg.value(metadata float %3, metadata !8140, metadata !DIExpression()), !dbg !8143
  %107 = bitcast float %3 to i32
  call void @llvm.dbg.value(metadata float* undef, metadata !8140, metadata !DIExpression(DW_OP_deref)), !dbg !8143
  call void @llvm.dbg.value(metadata %"class.std::__1::function"* %106, metadata !8219, metadata !DIExpression()), !dbg !8228
  call void @llvm.dbg.value(metadata %"class.std::__1::__bind.117"* undef, metadata !8227, metadata !DIExpression(DW_OP_deref)), !dbg !8228
  call void @llvm.dbg.value(metadata %"class.std::__1::__bind.117"* undef, metadata !8227, metadata !DIExpression(DW_OP_deref)), !dbg !8228
  call void @llvm.dbg.value(metadata %"class.std::__1::function"* %106, metadata !8230, metadata !DIExpression()), !dbg !8234
  call void @llvm.dbg.value(metadata %"class.std::__1::__bind.117"* undef, metadata !8233, metadata !DIExpression()), !dbg !8234
  %108 = bitcast %"class.std::__1::function"* %106 to i32 (...)***, !dbg !8241
  store i32 (...)** bitcast (i8** getelementptr inbounds ({ [9 x i8*] }, { [9 x i8*] }* @_ZTVNSt3__110__function6__funcINS_6__bindIRFfffEJRKNS_12placeholders4__phILi1EEERfEEENS_9allocatorISB_EEFffEEE, i32 0, inrange i32 0, i32 2) to i32 (...)**), i32 (...)*** %108, align 4, !dbg !8241, !alias.scope !8152
  %109 = getelementptr inbounds %"class.android::ColorSpace", %"class.android::ColorSpace"* %0, i32 0, i32 5, i32 0, i32 0, i32 4, !dbg !8242
  call void @llvm.dbg.value(metadata %"class.std::__1::tuple.124"* undef, metadata !8243, metadata !DIExpression(DW_OP_deref)), !dbg !8255
  call void @llvm.dbg.value(metadata %"class.std::__1::tuple.124"* undef, metadata !8257, metadata !DIExpression(DW_OP_deref)), !dbg !8269
  %110 = bitcast i8* %109 to i64*, !dbg !8271
  call void @llvm.dbg.value(metadata i64* %110, metadata !8251, metadata !DIExpression()), !dbg !8255
  call void @llvm.dbg.value(metadata i64* %110, metadata !8265, metadata !DIExpression()), !dbg !8269
  %111 = zext i32 %107 to i64, !dbg !8271
  %112 = shl nuw i64 %111, 32, !dbg !8271
  %113 = or i64 %112, zext (i32 ptrtoint (float (float, float)* @_ZN7androidL7safePowEff to i32) to i64), !dbg !8271
  store i64 %113, i64* %110, align 4, !dbg !8271, !alias.scope !8152
  br label %114, !dbg !8272

114:                                              ; preds = %85, %95
  %115 = phi %"class.std::__1::function"* [ %91, %85 ], [ %106, %95 ]
  %116 = getelementptr inbounds %"class.android::ColorSpace", %"class.android::ColorSpace"* %0, i32 0, i32 5, i32 1, !dbg !8143
  %117 = bitcast %"class.std::__1::__function::__base"** %116 to %"class.std::__1::function"**, !dbg !8143
  store %"class.std::__1::function"* %115, %"class.std::__1::function"** %117, align 8, !dbg !8143, !alias.scope !8152
  %118 = getelementptr inbounds %"class.android::ColorSpace", %"class.android::ColorSpace"* %0, i32 0, i32 6, !dbg !8273
  call void @llvm.dbg.value(metadata %"class.std::__1::function"* %118, metadata !7011, metadata !DIExpression()) #14, !dbg !8274
  call void @llvm.dbg.value(metadata %"class.std::__1::function"* %4, metadata !7014, metadata !DIExpression()) #14, !dbg !8274
  %119 = getelementptr inbounds %"class.std::__1::function", %"class.std::__1::function"* %4, i32 0, i32 1, !dbg !8276
  %120 = load %"class.std::__1::__function::__base"*, %"class.std::__1::__function::__base"** %119, align 8, !dbg !8276
  %121 = icmp eq %"class.std::__1::__function::__base"* %120, null, !dbg !8277
  br i1 %121, label %122, label %124, !dbg !8278

122:                                              ; preds = %114
  %123 = getelementptr inbounds %"class.android::ColorSpace", %"class.android::ColorSpace"* %0, i32 0, i32 6, i32 1, !dbg !8279
  store %"class.std::__1::__function::__base"* null, %"class.std::__1::__function::__base"** %123, align 8, !dbg !8280
  br label %139, !dbg !8279

124:                                              ; preds = %114
  %125 = bitcast %"class.std::__1::__function::__base"* %120 to i8*, !dbg !8281
  %126 = getelementptr inbounds %"class.std::__1::function", %"class.std::__1::function"* %4, i32 0, i32 0, i32 0, i32 0, !dbg !8282
  %127 = icmp eq i8* %126, %125, !dbg !8283
  br i1 %127, label %128, label %137, !dbg !8284

128:                                              ; preds = %124
  call void @llvm.dbg.value(metadata %"class.std::__1::function"* %118, metadata !7030, metadata !DIExpression()) #14, !dbg !8285
  %129 = bitcast %"class.std::__1::function"* %118 to %"class.std::__1::__function::__base"*, !dbg !8287
  %130 = getelementptr inbounds %"class.android::ColorSpace", %"class.android::ColorSpace"* %0, i32 0, i32 6, i32 1, !dbg !8288
  %131 = bitcast %"class.std::__1::__function::__base"** %130 to %"class.std::__1::function"**, !dbg !8289
  store %"class.std::__1::function"* %118, %"class.std::__1::function"** %131, align 8, !dbg !8289
  %132 = load %"class.std::__1::__function::__base"*, %"class.std::__1::__function::__base"** %119, align 8, !dbg !8290
  %133 = bitcast %"class.std::__1::__function::__base"* %132 to void (%"class.std::__1::__function::__base"*, %"class.std::__1::__function::__base"*)***, !dbg !8291
  %134 = load void (%"class.std::__1::__function::__base"*, %"class.std::__1::__function::__base"*)**, void (%"class.std::__1::__function::__base"*, %"class.std::__1::__function::__base"*)*** %133, align 4, !dbg !8291
  %135 = getelementptr inbounds void (%"class.std::__1::__function::__base"*, %"class.std::__1::__function::__base"*)*, void (%"class.std::__1::__function::__base"*, %"class.std::__1::__function::__base"*)** %134, i32 3, !dbg !8291
  %136 = load void (%"class.std::__1::__function::__base"*, %"class.std::__1::__function::__base"*)*, void (%"class.std::__1::__function::__base"*, %"class.std::__1::__function::__base"*)** %135, align 4, !dbg !8291
  tail call void %136(%"class.std::__1::__function::__base"* %132, %"class.std::__1::__function::__base"* nonnull %129) #13, !dbg !8291
  br label %139, !dbg !8292

137:                                              ; preds = %124
  %138 = getelementptr inbounds %"class.android::ColorSpace", %"class.android::ColorSpace"* %0, i32 0, i32 6, i32 1, !dbg !8293
  store %"class.std::__1::__function::__base"* %120, %"class.std::__1::__function::__base"** %138, align 8, !dbg !8294
  store %"class.std::__1::__function::__base"* null, %"class.std::__1::__function::__base"** %119, align 8, !dbg !8295
  br label %139

139:                                              ; preds = %122, %128, %137
  call void @llvm.dbg.value(metadata %"class.android::details::TMat33"* %2, metadata !7092, metadata !DIExpression()), !dbg !8296
  call void @llvm.dbg.value(metadata %"class.android::details::TVec3"* undef, metadata !7097, metadata !DIExpression(DW_OP_deref)), !dbg !8296
  call void @llvm.dbg.value(metadata %"class.android::details::TMat33"* %2, metadata !7102, metadata !DIExpression()), !dbg !8298
  call void @llvm.dbg.value(metadata %"class.android::details::TVec3"* undef, metadata !7107, metadata !DIExpression()), !dbg !8298
  call void @llvm.dbg.value(metadata i32 0, metadata !7109, metadata !DIExpression()), !dbg !8300
  call void @llvm.dbg.value(metadata i32 0, metadata !7109, metadata !DIExpression()), !dbg !8300
  %140 = load float, float* %11, align 4, !dbg !8301, !noalias !8302
  %141 = getelementptr inbounds %"class.android::details::TMat33", %"class.android::details::TMat33"* %2, i32 0, i32 0, i32 0, i32 0, i32 0, i32 1, !dbg !8301
  %142 = load float, float* %141, align 4, !dbg !8301, !noalias !8302
  %143 = getelementptr inbounds %"class.android::details::TMat33", %"class.android::details::TMat33"* %2, i32 0, i32 0, i32 0, i32 0, i32 0, i32 2, !dbg !8301
  %144 = load float, float* %143, align 4, !dbg !8301, !noalias !8302
  call void @llvm.dbg.value(metadata %"class.android::details::TVec3"* undef, metadata !7124, metadata !DIExpression()), !dbg !8307
  call void @llvm.dbg.value(metadata %"class.android::details::TVecProductOperators"* undef, metadata !7132, metadata !DIExpression()), !dbg !8309
  call void @llvm.dbg.value(metadata %"class.android::details::TVec3"* undef, metadata !7135, metadata !DIExpression()), !dbg !8309
  call void @llvm.dbg.value(metadata i32 0, metadata !7137, metadata !DIExpression()), !dbg !8311
  call void @llvm.dbg.value(metadata i32 0, metadata !7137, metadata !DIExpression()), !dbg !8311
  call void @llvm.dbg.value(metadata i32 1, metadata !7137, metadata !DIExpression()), !dbg !8311
  call void @llvm.dbg.value(metadata i32 1, metadata !7137, metadata !DIExpression()), !dbg !8311
  call void @llvm.dbg.value(metadata i32 2, metadata !7137, metadata !DIExpression()), !dbg !8311
  call void @llvm.dbg.value(metadata i32 2, metadata !7137, metadata !DIExpression()), !dbg !8311
  call void @llvm.dbg.value(metadata i32 3, metadata !7137, metadata !DIExpression()), !dbg !8311
  call void @llvm.dbg.value(metadata %"class.android::details::TVec3"* undef, metadata !7143, metadata !DIExpression()), !dbg !8312
  call void @llvm.dbg.value(metadata %"class.android::details::TVec3"* undef, metadata !7146, metadata !DIExpression()), !dbg !8312
  call void @llvm.dbg.value(metadata i32 0, metadata !7148, metadata !DIExpression()), !dbg !8314
  call void @llvm.dbg.value(metadata i32 0, metadata !7148, metadata !DIExpression()), !dbg !8314
  %145 = fadd float %140, 0.000000e+00, !dbg !8315
  call void @llvm.dbg.value(metadata i32 1, metadata !7148, metadata !DIExpression()), !dbg !8314
  call void @llvm.dbg.value(metadata i32 1, metadata !7148, metadata !DIExpression()), !dbg !8314
  %146 = fadd float %142, 0.000000e+00, !dbg !8315
  call void @llvm.dbg.value(metadata i32 2, metadata !7148, metadata !DIExpression()), !dbg !8314
  call void @llvm.dbg.value(metadata i32 2, metadata !7148, metadata !DIExpression()), !dbg !8314
  %147 = fadd float %144, 0.000000e+00, !dbg !8315
  call void @llvm.dbg.value(metadata i32 3, metadata !7148, metadata !DIExpression()), !dbg !8314
  call void @llvm.dbg.value(metadata i32 1, metadata !7109, metadata !DIExpression()), !dbg !8300
  call void @llvm.dbg.value(metadata i32 1, metadata !7109, metadata !DIExpression()), !dbg !8300
  %148 = load float, float* %13, align 4, !dbg !8301, !noalias !8302
  %149 = getelementptr inbounds %"class.android::details::TMat33", %"class.android::details::TMat33"* %2, i32 0, i32 0, i32 1, i32 0, i32 0, i32 1, !dbg !8301
  %150 = load float, float* %149, align 4, !dbg !8301, !noalias !8302
  %151 = getelementptr inbounds %"class.android::details::TMat33", %"class.android::details::TMat33"* %2, i32 0, i32 0, i32 1, i32 0, i32 0, i32 2, !dbg !8301
  %152 = load float, float* %151, align 4, !dbg !8301, !noalias !8302
  call void @llvm.dbg.value(metadata %"class.android::details::TVec3"* undef, metadata !7124, metadata !DIExpression()), !dbg !8307
  call void @llvm.dbg.value(metadata %"class.android::details::TVecProductOperators"* undef, metadata !7132, metadata !DIExpression()), !dbg !8309
  call void @llvm.dbg.value(metadata %"class.android::details::TVec3"* undef, metadata !7135, metadata !DIExpression()), !dbg !8309
  call void @llvm.dbg.value(metadata i32 0, metadata !7137, metadata !DIExpression()), !dbg !8311
  call void @llvm.dbg.value(metadata i32 0, metadata !7137, metadata !DIExpression()), !dbg !8311
  %153 = fmul float %148, 0.000000e+00, !dbg !8316
  call void @llvm.dbg.value(metadata i32 1, metadata !7137, metadata !DIExpression()), !dbg !8311
  call void @llvm.dbg.value(metadata i32 1, metadata !7137, metadata !DIExpression()), !dbg !8311
  %154 = fmul float %150, 0.000000e+00, !dbg !8316
  call void @llvm.dbg.value(metadata i32 2, metadata !7137, metadata !DIExpression()), !dbg !8311
  call void @llvm.dbg.value(metadata i32 2, metadata !7137, metadata !DIExpression()), !dbg !8311
  %155 = fmul float %152, 0.000000e+00, !dbg !8316
  call void @llvm.dbg.value(metadata i32 3, metadata !7137, metadata !DIExpression()), !dbg !8311
  call void @llvm.dbg.value(metadata %"class.android::details::TVec3"* undef, metadata !7143, metadata !DIExpression()), !dbg !8312
  call void @llvm.dbg.value(metadata %"class.android::details::TVec3"* undef, metadata !7146, metadata !DIExpression()), !dbg !8312
  call void @llvm.dbg.value(metadata i32 0, metadata !7148, metadata !DIExpression()), !dbg !8314
  call void @llvm.dbg.value(metadata i32 0, metadata !7148, metadata !DIExpression()), !dbg !8314
  %156 = fadd float %145, %153, !dbg !8315
  call void @llvm.dbg.value(metadata i32 1, metadata !7148, metadata !DIExpression()), !dbg !8314
  call void @llvm.dbg.value(metadata i32 1, metadata !7148, metadata !DIExpression()), !dbg !8314
  %157 = fadd float %146, %154, !dbg !8315
  call void @llvm.dbg.value(metadata i32 2, metadata !7148, metadata !DIExpression()), !dbg !8314
  call void @llvm.dbg.value(metadata i32 2, metadata !7148, metadata !DIExpression()), !dbg !8314
  %158 = fadd float %147, %155, !dbg !8315
  call void @llvm.dbg.value(metadata i32 3, metadata !7148, metadata !DIExpression()), !dbg !8314
  call void @llvm.dbg.value(metadata i32 2, metadata !7109, metadata !DIExpression()), !dbg !8300
  call void @llvm.dbg.value(metadata i32 2, metadata !7109, metadata !DIExpression()), !dbg !8300
  %159 = load float, float* %15, align 4, !dbg !8301, !noalias !8302
  %160 = getelementptr inbounds %"class.android::details::TMat33", %"class.android::details::TMat33"* %2, i32 0, i32 0, i32 2, i32 0, i32 0, i32 1, !dbg !8301
  %161 = load float, float* %160, align 4, !dbg !8301, !noalias !8302
  %162 = getelementptr inbounds %"class.android::details::TMat33", %"class.android::details::TMat33"* %2, i32 0, i32 0, i32 2, i32 0, i32 0, i32 2, !dbg !8301
  %163 = load float, float* %162, align 4, !dbg !8301, !noalias !8302
  call void @llvm.dbg.value(metadata %"class.android::details::TVec3"* undef, metadata !7124, metadata !DIExpression()), !dbg !8307
  call void @llvm.dbg.value(metadata %"class.android::details::TVecProductOperators"* undef, metadata !7132, metadata !DIExpression()), !dbg !8309
  call void @llvm.dbg.value(metadata %"class.android::details::TVec3"* undef, metadata !7135, metadata !DIExpression()), !dbg !8309
  call void @llvm.dbg.value(metadata i32 0, metadata !7137, metadata !DIExpression()), !dbg !8311
  call void @llvm.dbg.value(metadata i32 0, metadata !7137, metadata !DIExpression()), !dbg !8311
  %164 = fmul float %159, 0.000000e+00, !dbg !8316
  call void @llvm.dbg.value(metadata i32 1, metadata !7137, metadata !DIExpression()), !dbg !8311
  call void @llvm.dbg.value(metadata i32 1, metadata !7137, metadata !DIExpression()), !dbg !8311
  %165 = fmul float %161, 0.000000e+00, !dbg !8316
  call void @llvm.dbg.value(metadata i32 2, metadata !7137, metadata !DIExpression()), !dbg !8311
  call void @llvm.dbg.value(metadata i32 2, metadata !7137, metadata !DIExpression()), !dbg !8311
  %166 = fmul float %163, 0.000000e+00, !dbg !8316
  call void @llvm.dbg.value(metadata i32 3, metadata !7137, metadata !DIExpression()), !dbg !8311
  call void @llvm.dbg.value(metadata %"class.android::details::TVec3"* undef, metadata !7143, metadata !DIExpression()), !dbg !8312
  call void @llvm.dbg.value(metadata %"class.android::details::TVec3"* undef, metadata !7146, metadata !DIExpression()), !dbg !8312
  call void @llvm.dbg.value(metadata i32 0, metadata !7148, metadata !DIExpression()), !dbg !8314
  call void @llvm.dbg.value(metadata i32 0, metadata !7148, metadata !DIExpression()), !dbg !8314
  %167 = fadd float %156, %164, !dbg !8315
  call void @llvm.dbg.value(metadata i32 1, metadata !7148, metadata !DIExpression()), !dbg !8314
  call void @llvm.dbg.value(metadata i32 1, metadata !7148, metadata !DIExpression()), !dbg !8314
  %168 = fadd float %157, %165, !dbg !8315
  call void @llvm.dbg.value(metadata i32 2, metadata !7148, metadata !DIExpression()), !dbg !8314
  call void @llvm.dbg.value(metadata i32 2, metadata !7148, metadata !DIExpression()), !dbg !8314
  %169 = fadd float %158, %166, !dbg !8315
  call void @llvm.dbg.value(metadata i32 3, metadata !7148, metadata !DIExpression()), !dbg !8314
  call void @llvm.dbg.value(metadata i32 3, metadata !7109, metadata !DIExpression()), !dbg !8300
  call void @llvm.dbg.value(metadata float %167, metadata !7108, metadata !DIExpression(DW_OP_LLVM_fragment, 0, 32)), !dbg !8298
  call void @llvm.dbg.value(metadata float %168, metadata !7108, metadata !DIExpression(DW_OP_LLVM_fragment, 32, 32)), !dbg !8298
  call void @llvm.dbg.value(metadata float %169, metadata !7108, metadata !DIExpression(DW_OP_LLVM_fragment, 64, 32)), !dbg !8298
  call void @llvm.dbg.value(metadata %"class.android::details::TVec3"* undef, metadata !7098, metadata !DIExpression(DW_OP_deref)), !dbg !8296
  call void @llvm.dbg.value(metadata %"class.android::details::TMat33"* %2, metadata !7102, metadata !DIExpression()), !dbg !8317
  call void @llvm.dbg.value(metadata %"class.android::details::TVec3"* undef, metadata !7107, metadata !DIExpression()), !dbg !8317
  call void @llvm.dbg.value(metadata i32 0, metadata !7109, metadata !DIExpression()), !dbg !8319
  call void @llvm.dbg.value(metadata i32 0, metadata !7109, metadata !DIExpression()), !dbg !8319
  call void @llvm.dbg.value(metadata %"class.android::details::TVec3"* undef, metadata !7124, metadata !DIExpression()), !dbg !8320
  call void @llvm.dbg.value(metadata %"class.android::details::TVecProductOperators"* undef, metadata !7132, metadata !DIExpression()), !dbg !8322
  call void @llvm.dbg.value(metadata %"class.android::details::TVec3"* undef, metadata !7135, metadata !DIExpression()), !dbg !8322
  call void @llvm.dbg.value(metadata i32 0, metadata !7137, metadata !DIExpression()), !dbg !8324
  call void @llvm.dbg.value(metadata i32 0, metadata !7137, metadata !DIExpression()), !dbg !8324
  %170 = fmul float %140, 0.000000e+00, !dbg !8325
  call void @llvm.dbg.value(metadata i32 1, metadata !7137, metadata !DIExpression()), !dbg !8324
  call void @llvm.dbg.value(metadata i32 1, metadata !7137, metadata !DIExpression()), !dbg !8324
  %171 = fmul float %142, 0.000000e+00, !dbg !8325
  call void @llvm.dbg.value(metadata i32 2, metadata !7137, metadata !DIExpression()), !dbg !8324
  call void @llvm.dbg.value(metadata i32 2, metadata !7137, metadata !DIExpression()), !dbg !8324
  %172 = fmul float %144, 0.000000e+00, !dbg !8325
  call void @llvm.dbg.value(metadata i32 3, metadata !7137, metadata !DIExpression()), !dbg !8324
  call void @llvm.dbg.value(metadata %"class.android::details::TVec3"* undef, metadata !7143, metadata !DIExpression()), !dbg !8326
  call void @llvm.dbg.value(metadata %"class.android::details::TVec3"* undef, metadata !7146, metadata !DIExpression()), !dbg !8326
  call void @llvm.dbg.value(metadata i32 0, metadata !7148, metadata !DIExpression()), !dbg !8328
  call void @llvm.dbg.value(metadata i32 0, metadata !7148, metadata !DIExpression()), !dbg !8328
  %173 = fadd float %170, 0.000000e+00, !dbg !8329
  call void @llvm.dbg.value(metadata i32 1, metadata !7148, metadata !DIExpression()), !dbg !8328
  call void @llvm.dbg.value(metadata i32 1, metadata !7148, metadata !DIExpression()), !dbg !8328
  %174 = fadd float %171, 0.000000e+00, !dbg !8329
  call void @llvm.dbg.value(metadata i32 2, metadata !7148, metadata !DIExpression()), !dbg !8328
  call void @llvm.dbg.value(metadata i32 2, metadata !7148, metadata !DIExpression()), !dbg !8328
  %175 = fadd float %172, 0.000000e+00, !dbg !8329
  call void @llvm.dbg.value(metadata i32 3, metadata !7148, metadata !DIExpression()), !dbg !8328
  call void @llvm.dbg.value(metadata i32 1, metadata !7109, metadata !DIExpression()), !dbg !8319
  call void @llvm.dbg.value(metadata i32 1, metadata !7109, metadata !DIExpression()), !dbg !8319
  call void @llvm.dbg.value(metadata %"class.android::details::TVec3"* undef, metadata !7124, metadata !DIExpression()), !dbg !8320
  call void @llvm.dbg.value(metadata %"class.android::details::TVecProductOperators"* undef, metadata !7132, metadata !DIExpression()), !dbg !8322
  call void @llvm.dbg.value(metadata %"class.android::details::TVec3"* undef, metadata !7135, metadata !DIExpression()), !dbg !8322
  call void @llvm.dbg.value(metadata i32 0, metadata !7137, metadata !DIExpression()), !dbg !8324
