; ModuleID = '/home/marcinguy/lineageos/out/soong/.intermediates/frameworks/base/media/native/midi/libmidi/android_arm_armv7-a-neon_krait_core_shared/obj/frameworks/base/media/native/midi/.midi.o.bc'
source_filename = "frameworks/base/media/native/midi/midi.cpp"
target datalayout = "e-m:e-p:32:32-Fi8-i64:64-v128:64:128-a:0:32-n32-S64"
target triple = "thumbv7-unknown-linux-android"

%struct.AMIDI_Device = type { %"class.android::sp", i32 }
%"class.android::sp" = type { %"class.android::media::midi::BpMidiDeviceServer"* }
%"class.android::media::midi::BpMidiDeviceServer" = type { %"class.android::BpInterface.base", %"class.android::RefBase" }
%"class.android::BpInterface.base" = type { %"class.android::media::midi::IMidiDeviceServer.base", %"class.android::BpRefBase.base" }
%"class.android::media::midi::IMidiDeviceServer.base" = type { %"class.android::IInterface.base" }
%"class.android::IInterface.base" = type { i32 (...)** }
%"class.android::BpRefBase.base" = type { i32 (...)**, %"class.android::IBinder"*, %"class.android::RefBase::weakref_type"*, %"struct.std::__1::atomic" }
%"class.android::IBinder" = type { i32 (...)**, %"class.android::RefBase" }
%"class.android::RefBase::weakref_type" = type { i8 }
%"struct.std::__1::atomic" = type { %"struct.std::__1::__atomic_base" }
%"struct.std::__1::__atomic_base" = type { %"struct.std::__1::__atomic_base.0" }
%"struct.std::__1::__atomic_base.0" = type { i32 }
%"class.android::RefBase" = type { i32 (...)**, %"class.android::RefBase::weakref_impl"* }
%"class.android::RefBase::weakref_impl" = type opaque
%struct.AMIDI_DeviceInfo = type { i32, i32, i32, i32, i32 }
%"class.android::media::midi::MidiDeviceInfo" = type <{ %"class.android::Parcelable", i32, i32, %"class.android::Vector", %"class.android::Vector", %"class.android::os::PersistableBundle", i8, [3 x i8] }>
%"class.android::Parcelable" = type { i32 (...)** }
%"class.android::Vector" = type { %"class.android::VectorImpl" }
%"class.android::VectorImpl" = type { i32 (...)**, i8*, i32, i32, i32 }
%"class.android::os::PersistableBundle" = type { %"class.android::Parcelable", %"class.std::__1::map", %"class.std::__1::map.5", %"class.std::__1::map.14", %"class.std::__1::map.23", %"class.std::__1::map.32", %"class.std::__1::map.41", %"class.std::__1::map.50", %"class.std::__1::map.59", %"class.std::__1::map.68", %"class.std::__1::map.77", %"class.std::__1::map.86" }
%"class.std::__1::map" = type { %"class.std::__1::__tree" }
%"class.std::__1::__tree" = type { %"class.std::__1::__tree_end_node"*, %"class.std::__1::__compressed_pair", %"class.std::__1::__compressed_pair.2" }
%"class.std::__1::__tree_end_node" = type { %"class.std::__1::__tree_node_base"* }
%"class.std::__1::__tree_node_base" = type <{ %"class.std::__1::__tree_end_node", %"class.std::__1::__tree_node_base"*, %"class.std::__1::__tree_end_node"*, i8, [3 x i8] }>
%"class.std::__1::__compressed_pair" = type { %"struct.std::__1::__compressed_pair_elem" }
%"struct.std::__1::__compressed_pair_elem" = type { %"class.std::__1::__tree_end_node" }
%"class.std::__1::__compressed_pair.2" = type { %"struct.std::__1::__compressed_pair_elem.3" }
%"struct.std::__1::__compressed_pair_elem.3" = type { i32 }
%"class.std::__1::map.5" = type { %"class.std::__1::__tree.6" }
%"class.std::__1::__tree.6" = type { %"class.std::__1::__tree_end_node"*, %"class.std::__1::__compressed_pair.7", %"class.std::__1::__compressed_pair.11" }
%"class.std::__1::__compressed_pair.7" = type { %"struct.std::__1::__compressed_pair_elem" }
%"class.std::__1::__compressed_pair.11" = type { %"struct.std::__1::__compressed_pair_elem.3" }
%"class.std::__1::map.14" = type { %"class.std::__1::__tree.15" }
%"class.std::__1::__tree.15" = type { %"class.std::__1::__tree_end_node"*, %"class.std::__1::__compressed_pair.16", %"class.std::__1::__compressed_pair.20" }
%"class.std::__1::__compressed_pair.16" = type { %"struct.std::__1::__compressed_pair_elem" }
%"class.std::__1::__compressed_pair.20" = type { %"struct.std::__1::__compressed_pair_elem.3" }
%"class.std::__1::map.23" = type { %"class.std::__1::__tree.24" }
%"class.std::__1::__tree.24" = type { %"class.std::__1::__tree_end_node"*, %"class.std::__1::__compressed_pair.25", %"class.std::__1::__compressed_pair.29" }
%"class.std::__1::__compressed_pair.25" = type { %"struct.std::__1::__compressed_pair_elem" }
%"class.std::__1::__compressed_pair.29" = type { %"struct.std::__1::__compressed_pair_elem.3" }
%"class.std::__1::map.32" = type { %"class.std::__1::__tree.33" }
%"class.std::__1::__tree.33" = type { %"class.std::__1::__tree_end_node"*, %"class.std::__1::__compressed_pair.34", %"class.std::__1::__compressed_pair.38" }
%"class.std::__1::__compressed_pair.34" = type { %"struct.std::__1::__compressed_pair_elem" }
%"class.std::__1::__compressed_pair.38" = type { %"struct.std::__1::__compressed_pair_elem.3" }
%"class.std::__1::map.41" = type { %"class.std::__1::__tree.42" }
%"class.std::__1::__tree.42" = type { %"class.std::__1::__tree_end_node"*, %"class.std::__1::__compressed_pair.43", %"class.std::__1::__compressed_pair.47" }
%"class.std::__1::__compressed_pair.43" = type { %"struct.std::__1::__compressed_pair_elem" }
%"class.std::__1::__compressed_pair.47" = type { %"struct.std::__1::__compressed_pair_elem.3" }
%"class.std::__1::map.50" = type { %"class.std::__1::__tree.51" }
%"class.std::__1::__tree.51" = type { %"class.std::__1::__tree_end_node"*, %"class.std::__1::__compressed_pair.52", %"class.std::__1::__compressed_pair.56" }
%"class.std::__1::__compressed_pair.52" = type { %"struct.std::__1::__compressed_pair_elem" }
%"class.std::__1::__compressed_pair.56" = type { %"struct.std::__1::__compressed_pair_elem.3" }
%"class.std::__1::map.59" = type { %"class.std::__1::__tree.60" }
%"class.std::__1::__tree.60" = type { %"class.std::__1::__tree_end_node"*, %"class.std::__1::__compressed_pair.61", %"class.std::__1::__compressed_pair.65" }
%"class.std::__1::__compressed_pair.61" = type { %"struct.std::__1::__compressed_pair_elem" }
%"class.std::__1::__compressed_pair.65" = type { %"struct.std::__1::__compressed_pair_elem.3" }
%"class.std::__1::map.68" = type { %"class.std::__1::__tree.69" }
%"class.std::__1::__tree.69" = type { %"class.std::__1::__tree_end_node"*, %"class.std::__1::__compressed_pair.70", %"class.std::__1::__compressed_pair.74" }
%"class.std::__1::__compressed_pair.70" = type { %"struct.std::__1::__compressed_pair_elem" }
%"class.std::__1::__compressed_pair.74" = type { %"struct.std::__1::__compressed_pair_elem.3" }
%"class.std::__1::map.77" = type { %"class.std::__1::__tree.78" }
%"class.std::__1::__tree.78" = type { %"class.std::__1::__tree_end_node"*, %"class.std::__1::__compressed_pair.79", %"class.std::__1::__compressed_pair.83" }
%"class.std::__1::__compressed_pair.79" = type { %"struct.std::__1::__compressed_pair_elem" }
%"class.std::__1::__compressed_pair.83" = type { %"struct.std::__1::__compressed_pair_elem.3" }
%"class.std::__1::map.86" = type { %"class.std::__1::__tree.87" }
%"class.std::__1::__tree.87" = type { %"class.std::__1::__tree_end_node"*, %"class.std::__1::__compressed_pair.88", %"class.std::__1::__compressed_pair.92" }
%"class.std::__1::__compressed_pair.88" = type { %"struct.std::__1::__compressed_pair_elem" }
%"class.std::__1::__compressed_pair.92" = type { %"struct.std::__1::__compressed_pair_elem.3" }
%"class.android::binder::Status" = type { i32, i32, %"class.android::String8" }
%"class.android::String8" = type { i8* }
%struct.AMIDI_OutputPort = type opaque
%struct.AMIDI_Port = type { %"struct.std::__1::atomic", %struct.AMIDI_Device*, %"class.android::sp.95", %"class.android::base::unique_fd_impl" }
%"class.android::sp.95" = type { %"class.android::IBinder"* }
%"class.android::base::unique_fd_impl" = type { i32 }
%"class.android::sp.184" = type { %"class.android::BBinder"* }
%"class.android::BBinder" = type { %"class.android::IBinder.base", %"struct.std::__1::atomic.185", i8*, %"class.android::RefBase" }
%"class.android::IBinder.base" = type { i32 (...)** }
%"struct.std::__1::atomic.185" = type { %"struct.std::__1::__atomic_base.186" }
%"struct.std::__1::__atomic_base.186" = type { %"class.android::BBinder::Extras"* }
%"class.android::BBinder::Extras" = type opaque
%struct.AMIDI_Message = type { i32, [1015 x i8], i32, i64 }
%struct.pollfd = type { i32, i16, i16 }
%struct.AMIDI_InputPort = type opaque
%"class.std::__1::__map_value_compare.94" = type { i8 }
%"struct.std::__1::less" = type { i8 }
%"class.std::__1::__map_value_compare.85" = type { i8 }
%"class.std::__1::__map_value_compare.76" = type { i8 }
%"class.std::__1::__map_value_compare.67" = type { i8 }
%"class.std::__1::__map_value_compare.58" = type { i8 }
%"class.std::__1::__map_value_compare.49" = type { i8 }
%"class.std::__1::__map_value_compare.40" = type { i8 }
%"class.std::__1::__map_value_compare.31" = type { i8 }
%"class.std::__1::__map_value_compare.22" = type { i8 }
%"class.std::__1::__map_value_compare.13" = type { i8 }
%"class.std::__1::__map_value_compare" = type { i8 }
%"class.android::String16" = type { i16* }
%"struct.std::__1::__compressed_pair_elem.4" = type { i8 }
%"class.std::__1::allocator" = type { i8 }
%"struct.std::__1::__compressed_pair_elem.1" = type { i8 }
%"struct.std::__1::__compressed_pair_elem.12" = type { i8 }
%"class.std::__1::allocator.9" = type { i8 }
%"struct.std::__1::__compressed_pair_elem.8" = type { i8 }
%"struct.std::__1::__compressed_pair_elem.21" = type { i8 }
%"class.std::__1::allocator.18" = type { i8 }
%"struct.std::__1::__compressed_pair_elem.17" = type { i8 }
%"struct.std::__1::__compressed_pair_elem.30" = type { i8 }
%"class.std::__1::allocator.27" = type { i8 }
%"struct.std::__1::__compressed_pair_elem.26" = type { i8 }
%"struct.std::__1::__compressed_pair_elem.39" = type { i8 }
%"class.std::__1::allocator.36" = type { i8 }
%"struct.std::__1::__compressed_pair_elem.35" = type { i8 }
%"struct.std::__1::__compressed_pair_elem.48" = type { i8 }
%"class.std::__1::allocator.45" = type { i8 }
%"struct.std::__1::__compressed_pair_elem.44" = type { i8 }
%"struct.std::__1::__compressed_pair_elem.57" = type { i8 }
%"class.std::__1::allocator.54" = type { i8 }
%"struct.std::__1::__compressed_pair_elem.53" = type { i8 }
%"struct.std::__1::__compressed_pair_elem.66" = type { i8 }
%"class.std::__1::allocator.63" = type { i8 }
%"struct.std::__1::__compressed_pair_elem.62" = type { i8 }
%"struct.std::__1::__compressed_pair_elem.75" = type { i8 }
%"class.std::__1::allocator.72" = type { i8 }
%"struct.std::__1::__compressed_pair_elem.71" = type { i8 }
%"struct.std::__1::__compressed_pair_elem.84" = type { i8 }
%"class.std::__1::allocator.81" = type { i8 }
%"struct.std::__1::__compressed_pair_elem.80" = type { i8 }
%"struct.std::__1::__compressed_pair_elem.93" = type { i8 }
%"class.std::__1::allocator.90" = type { i8 }
%"struct.std::__1::__compressed_pair_elem.89" = type { i8 }
%"class.std::__1::__tree_node" = type { %"class.std::__1::__tree_node_base.base", %"union.std::__1::__value_type" }
%"class.std::__1::__tree_node_base.base" = type <{ %"class.std::__1::__tree_end_node", %"class.std::__1::__tree_node_base"*, %"class.std::__1::__tree_end_node"*, i8 }>
%"union.std::__1::__value_type" = type { %"struct.std::__1::pair" }
%"struct.std::__1::pair" = type { %"class.android::String16", %"class.android::os::PersistableBundle" }
%"struct.std::__1::integral_constant" = type { i8 }
%"struct.std::__1::__has_destroy" = type { i8 }
%"class.std::__1::__tree_node.97" = type { %"class.std::__1::__tree_node_base.base", %"union.std::__1::__value_type.98" }
%"union.std::__1::__value_type.98" = type { %"struct.std::__1::pair.99" }
%"struct.std::__1::pair.99" = type { %"class.android::String16", %"class.std::__1::vector" }
%"class.std::__1::vector" = type { %"class.std::__1::__vector_base" }
%"class.std::__1::__vector_base" = type { %"class.android::String16"*, %"class.android::String16"*, %"class.std::__1::__compressed_pair.100" }
%"class.std::__1::__compressed_pair.100" = type { %"struct.std::__1::__compressed_pair_elem.101" }
%"struct.std::__1::__compressed_pair_elem.101" = type { %"class.android::String16"* }
%"struct.std::__1::__has_destroy.106" = type { i8 }
%"class.std::__1::allocator.103" = type { i8 }
%"struct.std::__1::__compressed_pair_elem.102" = type { i8 }
%"struct.std::__1::__has_destroy.108" = type { i8 }
%"struct.std::__1::integral_constant.107" = type { i8 }
%"class.std::__1::__tree_node.109" = type { %"class.std::__1::__tree_node_base.base", %"union.std::__1::__value_type.110" }
%"union.std::__1::__value_type.110" = type { %"struct.std::__1::pair.111" }
%"struct.std::__1::pair.111" = type { %"class.android::String16", %"class.std::__1::vector.112" }
%"class.std::__1::vector.112" = type { %"class.std::__1::__vector_base.113" }
%"class.std::__1::__vector_base.113" = type { double*, double*, %"class.std::__1::__compressed_pair.114" }
%"class.std::__1::__compressed_pair.114" = type { %"struct.std::__1::__compressed_pair_elem.115" }
%"struct.std::__1::__compressed_pair_elem.115" = type { double* }
%"struct.std::__1::__has_destroy.120" = type { i8 }
%"struct.std::__1::__compressed_pair_elem.116" = type { i8 }
%"class.std::__1::allocator.117" = type { i8 }
%"struct.std::__1::__has_destroy.121" = type { i8 }
%"class.std::__1::__tree_node.122" = type { %"class.std::__1::__tree_node_base.base", %"union.std::__1::__value_type.123" }
%"union.std::__1::__value_type.123" = type { %"struct.std::__1::pair.124" }
%"struct.std::__1::pair.124" = type { %"class.android::String16", %"class.std::__1::vector.125" }
%"class.std::__1::vector.125" = type { %"class.std::__1::__vector_base.126" }
%"class.std::__1::__vector_base.126" = type { i64*, i64*, %"class.std::__1::__compressed_pair.127" }
%"class.std::__1::__compressed_pair.127" = type { %"struct.std::__1::__compressed_pair_elem.128" }
%"struct.std::__1::__compressed_pair_elem.128" = type { i64* }
%"struct.std::__1::__has_destroy.133" = type { i8 }
%"struct.std::__1::__compressed_pair_elem.129" = type { i8 }
%"class.std::__1::allocator.130" = type { i8 }
%"struct.std::__1::__has_destroy.134" = type { i8 }
%"class.std::__1::__tree_node.135" = type { %"class.std::__1::__tree_node_base.base", %"union.std::__1::__value_type.136" }
%"union.std::__1::__value_type.136" = type { %"struct.std::__1::pair.137" }
%"struct.std::__1::pair.137" = type { %"class.android::String16", %"class.std::__1::vector.138" }
%"class.std::__1::vector.138" = type { %"class.std::__1::__vector_base.139" }
%"class.std::__1::__vector_base.139" = type { i32*, i32*, %"class.std::__1::__compressed_pair.140" }
%"class.std::__1::__compressed_pair.140" = type { %"struct.std::__1::__compressed_pair_elem.141" }
%"struct.std::__1::__compressed_pair_elem.141" = type { i32* }
%"struct.std::__1::__has_destroy.146" = type { i8 }
%"struct.std::__1::__compressed_pair_elem.142" = type { i8 }
%"class.std::__1::allocator.143" = type { i8 }
%"struct.std::__1::__has_destroy.147" = type { i8 }
%"class.std::__1::__tree_node.148" = type { %"class.std::__1::__tree_node_base.base", %"union.std::__1::__value_type.149" }
%"union.std::__1::__value_type.149" = type { %"struct.std::__1::pair.150" }
%"struct.std::__1::pair.150" = type { %"class.android::String16", %"class.std::__1::vector.151" }
%"class.std::__1::vector.151" = type { i32*, i32, %"class.std::__1::__compressed_pair.152" }
%"class.std::__1::__compressed_pair.152" = type { %"struct.std::__1::__compressed_pair_elem.3" }
%"struct.std::__1::__has_destroy.157" = type { i8 }
%"class.std::__1::allocator.154" = type { i8 }
%"struct.std::__1::__compressed_pair_elem.153" = type { i8 }
%"class.std::__1::__tree_node.158" = type { %"class.std::__1::__tree_node_base.base", %"union.std::__1::__value_type.159" }
%"union.std::__1::__value_type.159" = type { %"struct.std::__1::pair.160" }
%"struct.std::__1::pair.160" = type { %"class.android::String16", %"class.android::String16" }
%"struct.std::__1::__has_destroy.162" = type { i8 }
%"class.std::__1::__tree_node.163" = type { %"class.std::__1::__tree_node_base.base", %"union.std::__1::__value_type.164" }
%"union.std::__1::__value_type.164" = type { %"struct.std::__1::pair.165" }
%"struct.std::__1::pair.165" = type { %"class.android::String16", double }
%"struct.std::__1::__has_destroy.167" = type { i8 }
%"class.std::__1::__tree_node.168" = type { %"class.std::__1::__tree_node_base.base", %"union.std::__1::__value_type.169" }
%"union.std::__1::__value_type.169" = type { %"struct.std::__1::pair.170" }
%"struct.std::__1::pair.170" = type { %"class.android::String16", i64 }
%"struct.std::__1::__has_destroy.172" = type { i8 }
%"class.std::__1::__tree_node.173" = type { %"class.std::__1::__tree_node_base.base", %"union.std::__1::__value_type.174" }
%"union.std::__1::__value_type.174" = type { %"struct.std::__1::pair.175" }
%"struct.std::__1::pair.175" = type { %"class.android::String16", i32 }
%"struct.std::__1::__has_destroy.177" = type { i8 }
%"class.std::__1::__tree_node.178" = type { %"class.std::__1::__tree_node_base.base", [3 x i8], %"union.std::__1::__value_type.179" }
%"union.std::__1::__value_type.179" = type { %"struct.std::__1::pair.180" }
%"struct.std::__1::pair.180" = type <{ %"class.android::String16", i8, [3 x i8] }>
%"struct.std::__1::__has_destroy.183" = type { i8 }

$_ZN7android5media4midi14MidiDeviceInfoC2Ev = comdat any

$_ZNK7android2spINS_5media4midi18BpMidiDeviceServerEEptEv = comdat any

$_ZNK7android6binder6Status4isOkEv = comdat any

$_ZNK7android6binder6Status16transactionErrorEv = comdat any

$_ZNK7android5media4midi14MidiDeviceInfo7getTypeEv = comdat any

$_ZNK7android5media4midi14MidiDeviceInfo6getUidEv = comdat any

$_ZNK7android5media4midi14MidiDeviceInfo9isPrivateEv = comdat any

$_ZNK7android5media4midi14MidiDeviceInfo17getInputPortNamesEv = comdat any

$_ZNK7android6VectorINS_8String16EE4sizeEv = comdat any

$_ZNK7android5media4midi14MidiDeviceInfo18getOutputPortNamesEv = comdat any

$_ZN7android6binder6StatusD2Ev = comdat any

$_ZN7android5media4midi14MidiDeviceInfoD2Ev = comdat any

$_ZNK7android4base14unique_fd_implINS0_13DefaultCloserEEcviEv = comdat any

$_ZN7android10ParcelableC2Ev = comdat any

$_ZN7android6VectorINS_8String16EEC2Ev = comdat any

$_ZN7android2os17PersistableBundleC2Ev = comdat any

$_ZN7android10ParcelableD2Ev = comdat any

$_ZN7android10ParcelableD0Ev = comdat any

$_ZN7android6VectorINS_8String16EED2Ev = comdat any

$_ZN7android6VectorINS_8String16EED0Ev = comdat any

$_ZNK7android6VectorINS_8String16EE12do_constructEPvj = comdat any

$_ZNK7android6VectorINS_8String16EE10do_destroyEPvj = comdat any

$_ZNK7android6VectorINS_8String16EE7do_copyEPvPKvj = comdat any

$_ZNK7android6VectorINS_8String16EE8do_splatEPvPKvj = comdat any

$_ZNK7android6VectorINS_8String16EE15do_move_forwardEPvPKvj = comdat any

$_ZNK7android6VectorINS_8String16EE16do_move_backwardEPvPKvj = comdat any

$_ZN7android14construct_typeINS_8String16EEEvPT_j = comdat any

$_ZN7android12destroy_typeINS_8String16EEEvPT_j = comdat any

$_ZN7android9copy_typeINS_8String16EEENSt3__19enable_ifIXntsr6traitsIT_EE16has_trivial_copyEvE4typeEPS4_PKS4_j = comdat any

$_ZN7android10splat_typeINS_8String16EEEvPT_PKS2_j = comdat any

$_ZN7android17move_forward_typeINS_8String16EEENSt3__19enable_ifIXsr16use_trivial_moveIT_EE5valueEvE4typeEPS4_PKS4_j = comdat any

$_ZN7android18move_backward_typeINS_8String16EEENSt3__19enable_ifIXsr16use_trivial_moveIT_EE5valueEvE4typeEPS4_PKS4_j = comdat any

$_ZNSt3__16__treeINS_12__value_typeIN7android8String16EbEENS_19__map_value_compareIS3_S4_NS_4lessIS3_EELb1EEENS_9allocatorIS4_EEEC2ERKS8_ = comdat any

$_ZNSt3__16__treeINS_12__value_typeIN7android8String16EiEENS_19__map_value_compareIS3_S4_NS_4lessIS3_EELb1EEENS_9allocatorIS4_EEEC2ERKS8_ = comdat any

$_ZNSt3__16__treeINS_12__value_typeIN7android8String16ExEENS_19__map_value_compareIS3_S4_NS_4lessIS3_EELb1EEENS_9allocatorIS4_EEEC2ERKS8_ = comdat any

$_ZNSt3__16__treeINS_12__value_typeIN7android8String16EdEENS_19__map_value_compareIS3_S4_NS_4lessIS3_EELb1EEENS_9allocatorIS4_EEEC2ERKS8_ = comdat any

$_ZNSt3__16__treeINS_12__value_typeIN7android8String16ES3_EENS_19__map_value_compareIS3_S4_NS_4lessIS3_EELb1EEENS_9allocatorIS4_EEEC2ERKS8_ = comdat any

$_ZNSt3__16__treeINS_12__value_typeIN7android8String16ENS_6vectorIbNS_9allocatorIbEEEEEENS_19__map_value_compareIS3_S8_NS_4lessIS3_EELb1EEENS5_IS8_EEEC2ERKSC_ = comdat any

$_ZNSt3__16__treeINS_12__value_typeIN7android8String16ENS_6vectorIiNS_9allocatorIiEEEEEENS_19__map_value_compareIS3_S8_NS_4lessIS3_EELb1EEENS5_IS8_EEEC2ERKSC_ = comdat any

$_ZNSt3__16__treeINS_12__value_typeIN7android8String16ENS_6vectorIxNS_9allocatorIxEEEEEENS_19__map_value_compareIS3_S8_NS_4lessIS3_EELb1EEENS5_IS8_EEEC2ERKSC_ = comdat any

$_ZNSt3__16__treeINS_12__value_typeIN7android8String16ENS_6vectorIdNS_9allocatorIdEEEEEENS_19__map_value_compareIS3_S8_NS_4lessIS3_EELb1EEENS5_IS8_EEEC2ERKSC_ = comdat any

$_ZNSt3__16__treeINS_12__value_typeIN7android8String16ENS_6vectorIS3_NS_9allocatorIS3_EEEEEENS_19__map_value_compareIS3_S8_NS_4lessIS3_EELb1EEENS5_IS8_EEEC2ERKSC_ = comdat any

$_ZNSt3__16__treeINS_12__value_typeIN7android8String16ENS2_2os17PersistableBundleEEENS_19__map_value_compareIS3_S6_NS_4lessIS3_EELb1EEENS_9allocatorIS6_EEEC2ERKSA_ = comdat any

$_ZN7android2os17PersistableBundleD2Ev = comdat any

$_ZNSt3__13mapIN7android8String16ENS1_2os17PersistableBundleENS_4lessIS2_EENS_9allocatorINS_4pairIKS2_S4_EEEEED2Ev = comdat any

$_ZNSt3__13mapIN7android8String16ENS_6vectorIS2_NS_9allocatorIS2_EEEENS_4lessIS2_EENS4_INS_4pairIKS2_S6_EEEEED2Ev = comdat any

$_ZNSt3__13mapIN7android8String16ENS_6vectorIdNS_9allocatorIdEEEENS_4lessIS2_EENS4_INS_4pairIKS2_S6_EEEEED2Ev = comdat any

$_ZNSt3__13mapIN7android8String16ENS_6vectorIxNS_9allocatorIxEEEENS_4lessIS2_EENS4_INS_4pairIKS2_S6_EEEEED2Ev = comdat any

$_ZNSt3__13mapIN7android8String16ENS_6vectorIiNS_9allocatorIiEEEENS_4lessIS2_EENS4_INS_4pairIKS2_S6_EEEEED2Ev = comdat any

$_ZNSt3__13mapIN7android8String16ENS_6vectorIbNS_9allocatorIbEEEENS_4lessIS2_EENS4_INS_4pairIKS2_S6_EEEEED2Ev = comdat any

$_ZNSt3__13mapIN7android8String16ES2_NS_4lessIS2_EENS_9allocatorINS_4pairIKS2_S2_EEEEED2Ev = comdat any

$_ZNSt3__13mapIN7android8String16EdNS_4lessIS2_EENS_9allocatorINS_4pairIKS2_dEEEEED2Ev = comdat any

$_ZNSt3__13mapIN7android8String16ExNS_4lessIS2_EENS_9allocatorINS_4pairIKS2_xEEEEED2Ev = comdat any

$_ZNSt3__13mapIN7android8String16EiNS_4lessIS2_EENS_9allocatorINS_4pairIKS2_iEEEEED2Ev = comdat any

$_ZNSt3__13mapIN7android8String16EbNS_4lessIS2_EENS_9allocatorINS_4pairIKS2_bEEEEED2Ev = comdat any

$_ZNSt3__16__treeINS_12__value_typeIN7android8String16ENS2_2os17PersistableBundleEEENS_19__map_value_compareIS3_S6_NS_4lessIS3_EELb1EEENS_9allocatorIS6_EEED2Ev = comdat any

$_ZNSt3__16__treeINS_12__value_typeIN7android8String16ENS2_2os17PersistableBundleEEENS_19__map_value_compareIS3_S6_NS_4lessIS3_EELb1EEENS_9allocatorIS6_EEE7destroyEPNS_11__tree_nodeIS6_PvEE = comdat any

$_ZNSt3__14pairIKN7android8String16ENS1_2os17PersistableBundleEED2Ev = comdat any

$_ZNSt3__16__treeINS_12__value_typeIN7android8String16ENS_6vectorIS3_NS_9allocatorIS3_EEEEEENS_19__map_value_compareIS3_S8_NS_4lessIS3_EELb1EEENS5_IS8_EEED2Ev = comdat any

$_ZNSt3__16__treeINS_12__value_typeIN7android8String16ENS_6vectorIS3_NS_9allocatorIS3_EEEEEENS_19__map_value_compareIS3_S8_NS_4lessIS3_EELb1EEENS5_IS8_EEE7destroyEPNS_11__tree_nodeIS8_PvEE = comdat any

$_ZNSt3__14pairIKN7android8String16ENS_6vectorIS2_NS_9allocatorIS2_EEEEED2Ev = comdat any

$_ZNSt3__16vectorIN7android8String16ENS_9allocatorIS2_EEED2Ev = comdat any

$_ZNSt3__113__vector_baseIN7android8String16ENS_9allocatorIS2_EEED2Ev = comdat any

$_ZNSt3__16__treeINS_12__value_typeIN7android8String16ENS_6vectorIdNS_9allocatorIdEEEEEENS_19__map_value_compareIS3_S8_NS_4lessIS3_EELb1EEENS5_IS8_EEED2Ev = comdat any

$_ZNSt3__16__treeINS_12__value_typeIN7android8String16ENS_6vectorIdNS_9allocatorIdEEEEEENS_19__map_value_compareIS3_S8_NS_4lessIS3_EELb1EEENS5_IS8_EEE7destroyEPNS_11__tree_nodeIS8_PvEE = comdat any

$_ZNSt3__14pairIKN7android8String16ENS_6vectorIdNS_9allocatorIdEEEEED2Ev = comdat any

$_ZNSt3__16vectorIdNS_9allocatorIdEEED2Ev = comdat any

$_ZNSt3__113__vector_baseIdNS_9allocatorIdEEED2Ev = comdat any

$_ZNSt3__16__treeINS_12__value_typeIN7android8String16ENS_6vectorIxNS_9allocatorIxEEEEEENS_19__map_value_compareIS3_S8_NS_4lessIS3_EELb1EEENS5_IS8_EEED2Ev = comdat any

$_ZNSt3__16__treeINS_12__value_typeIN7android8String16ENS_6vectorIxNS_9allocatorIxEEEEEENS_19__map_value_compareIS3_S8_NS_4lessIS3_EELb1EEENS5_IS8_EEE7destroyEPNS_11__tree_nodeIS8_PvEE = comdat any

$_ZNSt3__14pairIKN7android8String16ENS_6vectorIxNS_9allocatorIxEEEEED2Ev = comdat any

$_ZNSt3__16vectorIxNS_9allocatorIxEEED2Ev = comdat any

$_ZNSt3__113__vector_baseIxNS_9allocatorIxEEED2Ev = comdat any

$_ZNSt3__16__treeINS_12__value_typeIN7android8String16ENS_6vectorIiNS_9allocatorIiEEEEEENS_19__map_value_compareIS3_S8_NS_4lessIS3_EELb1EEENS5_IS8_EEED2Ev = comdat any

$_ZNSt3__16__treeINS_12__value_typeIN7android8String16ENS_6vectorIiNS_9allocatorIiEEEEEENS_19__map_value_compareIS3_S8_NS_4lessIS3_EELb1EEENS5_IS8_EEE7destroyEPNS_11__tree_nodeIS8_PvEE = comdat any

$_ZNSt3__14pairIKN7android8String16ENS_6vectorIiNS_9allocatorIiEEEEED2Ev = comdat any

$_ZNSt3__16vectorIiNS_9allocatorIiEEED2Ev = comdat any

$_ZNSt3__113__vector_baseIiNS_9allocatorIiEEED2Ev = comdat any

$_ZNSt3__16__treeINS_12__value_typeIN7android8String16ENS_6vectorIbNS_9allocatorIbEEEEEENS_19__map_value_compareIS3_S8_NS_4lessIS3_EELb1EEENS5_IS8_EEED2Ev = comdat any

$_ZNSt3__16__treeINS_12__value_typeIN7android8String16ENS_6vectorIbNS_9allocatorIbEEEEEENS_19__map_value_compareIS3_S8_NS_4lessIS3_EELb1EEENS5_IS8_EEE7destroyEPNS_11__tree_nodeIS8_PvEE = comdat any

$_ZNSt3__14pairIKN7android8String16ENS_6vectorIbNS_9allocatorIbEEEEED2Ev = comdat any

$_ZNSt3__16vectorIbNS_9allocatorIbEEED2Ev = comdat any

$_ZNSt3__16__treeINS_12__value_typeIN7android8String16ES3_EENS_19__map_value_compareIS3_S4_NS_4lessIS3_EELb1EEENS_9allocatorIS4_EEED2Ev = comdat any

$_ZNSt3__16__treeINS_12__value_typeIN7android8String16ES3_EENS_19__map_value_compareIS3_S4_NS_4lessIS3_EELb1EEENS_9allocatorIS4_EEE7destroyEPNS_11__tree_nodeIS4_PvEE = comdat any

$_ZNSt3__14pairIKN7android8String16ES2_ED2Ev = comdat any

$_ZNSt3__16__treeINS_12__value_typeIN7android8String16EdEENS_19__map_value_compareIS3_S4_NS_4lessIS3_EELb1EEENS_9allocatorIS4_EEED2Ev = comdat any

$_ZNSt3__16__treeINS_12__value_typeIN7android8String16EdEENS_19__map_value_compareIS3_S4_NS_4lessIS3_EELb1EEENS_9allocatorIS4_EEE7destroyEPNS_11__tree_nodeIS4_PvEE = comdat any

$_ZNSt3__14pairIKN7android8String16EdED2Ev = comdat any

$_ZNSt3__16__treeINS_12__value_typeIN7android8String16ExEENS_19__map_value_compareIS3_S4_NS_4lessIS3_EELb1EEENS_9allocatorIS4_EEED2Ev = comdat any

$_ZNSt3__16__treeINS_12__value_typeIN7android8String16ExEENS_19__map_value_compareIS3_S4_NS_4lessIS3_EELb1EEENS_9allocatorIS4_EEE7destroyEPNS_11__tree_nodeIS4_PvEE = comdat any

$_ZNSt3__14pairIKN7android8String16ExED2Ev = comdat any

$_ZNSt3__16__treeINS_12__value_typeIN7android8String16EiEENS_19__map_value_compareIS3_S4_NS_4lessIS3_EELb1EEENS_9allocatorIS4_EEED2Ev = comdat any

$_ZNSt3__16__treeINS_12__value_typeIN7android8String16EiEENS_19__map_value_compareIS3_S4_NS_4lessIS3_EELb1EEENS_9allocatorIS4_EEE7destroyEPNS_11__tree_nodeIS4_PvEE = comdat any

$_ZNSt3__14pairIKN7android8String16EiED2Ev = comdat any

$_ZNSt3__16__treeINS_12__value_typeIN7android8String16EbEENS_19__map_value_compareIS3_S4_NS_4lessIS3_EELb1EEENS_9allocatorIS4_EEED2Ev = comdat any

$_ZNSt3__16__treeINS_12__value_typeIN7android8String16EbEENS_19__map_value_compareIS3_S4_NS_4lessIS3_EELb1EEENS_9allocatorIS4_EEE7destroyEPNS_11__tree_nodeIS4_PvEE = comdat any

$_ZNSt3__14pairIKN7android8String16EbED2Ev = comdat any

$_ZN7android2spINS_7BBinderEEC2EPS1_ = comdat any

$_ZN7android4base14unique_fd_implINS0_13DefaultCloserEEC2Ev = comdat any

$_ZN7android2spINS_7IBinderEEC2INS_7BBinderEEERKNS0_IT_EE = comdat any

$_ZN7android2spINS_7IBinderEED2Ev = comdat any

$_ZN10AMIDI_PortC2Ev = comdat any

$_ZN7android2spINS_7IBinderEEaSINS_7BBinderEEERS2_RKNS0_IT_EE = comdat any

$_ZN7android4base14unique_fd_implINS0_13DefaultCloserEEaSEOS3_ = comdat any

$_ZN7android4base14unique_fd_implINS0_13DefaultCloserEED2Ev = comdat any

$_ZN7android2spINS_7BBinderEED2Ev = comdat any

$_ZN7android2spINS_7IBinderEEC2Ev = comdat any

$_ZN7android4base14unique_fd_implINS0_13DefaultCloserEE5resetEi = comdat any

$_ZN7android4base14unique_fd_implINS0_13DefaultCloserEE7releaseEv = comdat any

$_ZN7android4base13DefaultCloser5CloseEi = comdat any

$_ZN10AMIDI_PortD2Ev = comdat any

$_ZNK7android10VectorImpl4sizeEv = comdat any

$_ZNK7android4base14unique_fd_implINS0_13DefaultCloserEE3getEv = comdat any

$_ZTVN7android10ParcelableE = comdat any

$_ZTVN7android6VectorINS_8String16EEE = comdat any

@.str = private unnamed_addr constant [11 x i8] c"NativeMIDI\00", align 1
@.str.1 = private unnamed_addr constant [42 x i8] c"AMIDI_getDeviceInfo transaction error: %d\00", align 1
@.str.2 = private unnamed_addr constant [83 x i8] c"AMIDI_sendWithTimestamp Couldn't write MIDI data buffer. requested:%zu, written%zu\00", align 1
@.str.3 = private unnamed_addr constant [65 x i8] c"AMIDI_flush Couldn't write MIDI flush. requested:%zu, written%zu\00", align 1
@_ZTVN7android5media4midi14MidiDeviceInfoE = external unnamed_addr constant { [6 x i8*] }, align 4
@_ZTVN7android10ParcelableE = linkonce_odr unnamed_addr constant { [6 x i8*] } { [6 x i8*] [i8* null, i8* null, i8* bitcast (%"class.android::Parcelable"* (%"class.android::Parcelable"*)* @_ZN7android10ParcelableD2Ev to i8*), i8* bitcast (void (%"class.android::Parcelable"*)* @_ZN7android10ParcelableD0Ev to i8*), i8* bitcast (void ()* @__cxa_pure_virtual to i8*), i8* bitcast (void ()* @__cxa_pure_virtual to i8*)] }, comdat, align 4
@_ZTVN7android6VectorINS_8String16EEE = linkonce_odr unnamed_addr constant { [10 x i8*] } { [10 x i8*] [i8* null, i8* null, i8* bitcast (%"class.android::Vector"* (%"class.android::Vector"*)* @_ZN7android6VectorINS_8String16EED2Ev to i8*), i8* bitcast (void (%"class.android::Vector"*)* @_ZN7android6VectorINS_8String16EED0Ev to i8*), i8* bitcast (void (%"class.android::Vector"*, i8*, i32)* @_ZNK7android6VectorINS_8String16EE12do_constructEPvj to i8*), i8* bitcast (void (%"class.android::Vector"*, i8*, i32)* @_ZNK7android6VectorINS_8String16EE10do_destroyEPvj to i8*), i8* bitcast (void (%"class.android::Vector"*, i8*, i8*, i32)* @_ZNK7android6VectorINS_8String16EE7do_copyEPvPKvj to i8*), i8* bitcast (void (%"class.android::Vector"*, i8*, i8*, i32)* @_ZNK7android6VectorINS_8String16EE8do_splatEPvPKvj to i8*), i8* bitcast (void (%"class.android::Vector"*, i8*, i8*, i32)* @_ZNK7android6VectorINS_8String16EE15do_move_forwardEPvPKvj to i8*), i8* bitcast (void (%"class.android::Vector"*, i8*, i8*, i32)* @_ZNK7android6VectorINS_8String16EE16do_move_backwardEPvPKvj to i8*)] }, comdat, align 4
@_ZTVN7android2os17PersistableBundleE = external unnamed_addr constant { [6 x i8*] }, align 4
@.str.4 = private unnamed_addr constant [37 x i8] c"AMIDI_openPort transaction error: %d\00", align 1

; Function Attrs: noinline nounwind optnone sspstrong uwtable
define i32 @AMIDI_getDeviceInfo(%struct.AMIDI_Device*, %struct.AMIDI_DeviceInfo*) #0 !dbg !17071 {
  %3 = alloca i32, align 4
  %4 = alloca %struct.AMIDI_Device*, align 4
  %5 = alloca %struct.AMIDI_DeviceInfo*, align 4
  %6 = alloca %"class.android::media::midi::MidiDeviceInfo", align 4
  %7 = alloca %"class.android::binder::Status", align 4
  %8 = alloca i32, align 4
  store %struct.AMIDI_Device* %0, %struct.AMIDI_Device** %4, align 4
  call void @llvm.dbg.declare(metadata %struct.AMIDI_Device** %4, metadata !17083, metadata !DIExpression()), !dbg !17084
  store %struct.AMIDI_DeviceInfo* %1, %struct.AMIDI_DeviceInfo** %5, align 4
  call void @llvm.dbg.declare(metadata %struct.AMIDI_DeviceInfo** %5, metadata !17085, metadata !DIExpression()), !dbg !17086
  call void @llvm.dbg.declare(metadata %"class.android::media::midi::MidiDeviceInfo"* %6, metadata !17087, metadata !DIExpression()), !dbg !17088
  %9 = call %"class.android::media::midi::MidiDeviceInfo"* @_ZN7android5media4midi14MidiDeviceInfoC2Ev(%"class.android::media::midi::MidiDeviceInfo"* %6), !dbg !17088
  call void @llvm.dbg.declare(metadata %"class.android::binder::Status"* %7, metadata !17089, metadata !DIExpression()), !dbg !17090
  %10 = load %struct.AMIDI_Device*, %struct.AMIDI_Device** %4, align 4, !dbg !17091
  %11 = getelementptr inbounds %struct.AMIDI_Device, %struct.AMIDI_Device* %10, i32 0, i32 0, !dbg !17092
  %12 = call %"class.android::media::midi::BpMidiDeviceServer"* @_ZNK7android2spINS_5media4midi18BpMidiDeviceServerEEptEv(%"class.android::sp"* %11), !dbg !17091
  %13 = bitcast %"class.android::media::midi::BpMidiDeviceServer"* %12 to void (%"class.android::binder::Status"*, %"class.android::media::midi::BpMidiDeviceServer"*, %"class.android::media::midi::MidiDeviceInfo"*)***, !dbg !17093
  %14 = load void (%"class.android::binder::Status"*, %"class.android::media::midi::BpMidiDeviceServer"*, %"class.android::media::midi::MidiDeviceInfo"*)**, void (%"class.android::binder::Status"*, %"class.android::media::midi::BpMidiDeviceServer"*, %"class.android::media::midi::MidiDeviceInfo"*)*** %13, align 4, !dbg !17093
  %15 = getelementptr inbounds void (%"class.android::binder::Status"*, %"class.android::media::midi::BpMidiDeviceServer"*, %"class.android::media::midi::MidiDeviceInfo"*)*, void (%"class.android::binder::Status"*, %"class.android::media::midi::BpMidiDeviceServer"*, %"class.android::media::midi::MidiDeviceInfo"*)** %14, i64 9, !dbg !17093
  %16 = load void (%"class.android::binder::Status"*, %"class.android::media::midi::BpMidiDeviceServer"*, %"class.android::media::midi::MidiDeviceInfo"*)*, void (%"class.android::binder::Status"*, %"class.android::media::midi::BpMidiDeviceServer"*, %"class.android::media::midi::MidiDeviceInfo"*)** %15, align 4, !dbg !17093
  call void %16(%"class.android::binder::Status"* sret %7, %"class.android::media::midi::BpMidiDeviceServer"* %12, %"class.android::media::midi::MidiDeviceInfo"* %6), !dbg !17093
  %17 = call zeroext i1 @_ZNK7android6binder6Status4isOkEv(%"class.android::binder::Status"* %7), !dbg !17094
  br i1 %17, label %22, label %18, !dbg !17096

18:                                               ; preds = %2
  %19 = call i32 @_ZNK7android6binder6Status16transactionErrorEv(%"class.android::binder::Status"* %7), !dbg !17097
  %20 = call i32 (i32, i8*, i8*, ...) @__android_log_print(i32 6, i8* getelementptr inbounds ([11 x i8], [11 x i8]* @.str, i32 0, i32 0), i8* getelementptr inbounds ([42 x i8], [42 x i8]* @.str.1, i32 0, i32 0), i32 %19), !dbg !17097
  %21 = call i32 @_ZNK7android6binder6Status16transactionErrorEv(%"class.android::binder::Status"* %7), !dbg !17099
  store i32 %21, i32* %3, align 4, !dbg !17100
  store i32 1, i32* %8, align 4
  br label %41, !dbg !17100

22:                                               ; preds = %2
  %23 = call i32 @_ZNK7android5media4midi14MidiDeviceInfo7getTypeEv(%"class.android::media::midi::MidiDeviceInfo"* %6), !dbg !17101
  %24 = load %struct.AMIDI_DeviceInfo*, %struct.AMIDI_DeviceInfo** %5, align 4, !dbg !17102
  %25 = getelementptr inbounds %struct.AMIDI_DeviceInfo, %struct.AMIDI_DeviceInfo* %24, i32 0, i32 0, !dbg !17103
  store i32 %23, i32* %25, align 4, !dbg !17104
  %26 = call i32 @_ZNK7android5media4midi14MidiDeviceInfo6getUidEv(%"class.android::media::midi::MidiDeviceInfo"* %6), !dbg !17105
  %27 = load %struct.AMIDI_DeviceInfo*, %struct.AMIDI_DeviceInfo** %5, align 4, !dbg !17106
  %28 = getelementptr inbounds %struct.AMIDI_DeviceInfo, %struct.AMIDI_DeviceInfo* %27, i32 0, i32 1, !dbg !17107
  store i32 %26, i32* %28, align 4, !dbg !17108
  %29 = call zeroext i1 @_ZNK7android5media4midi14MidiDeviceInfo9isPrivateEv(%"class.android::media::midi::MidiDeviceInfo"* %6), !dbg !17109
  %30 = zext i1 %29 to i32, !dbg !17110
  %31 = load %struct.AMIDI_DeviceInfo*, %struct.AMIDI_DeviceInfo** %5, align 4, !dbg !17111
  %32 = getelementptr inbounds %struct.AMIDI_DeviceInfo, %struct.AMIDI_DeviceInfo* %31, i32 0, i32 2, !dbg !17112
  store i32 %30, i32* %32, align 4, !dbg !17113
  %33 = call dereferenceable(20) %"class.android::Vector"* @_ZNK7android5media4midi14MidiDeviceInfo17getInputPortNamesEv(%"class.android::media::midi::MidiDeviceInfo"* %6), !dbg !17114
  %34 = call i32 @_ZNK7android6VectorINS_8String16EE4sizeEv(%"class.android::Vector"* %33), !dbg !17115
  %35 = load %struct.AMIDI_DeviceInfo*, %struct.AMIDI_DeviceInfo** %5, align 4, !dbg !17116
  %36 = getelementptr inbounds %struct.AMIDI_DeviceInfo, %struct.AMIDI_DeviceInfo* %35, i32 0, i32 3, !dbg !17117
  store i32 %34, i32* %36, align 4, !dbg !17118
  %37 = call dereferenceable(20) %"class.android::Vector"* @_ZNK7android5media4midi14MidiDeviceInfo18getOutputPortNamesEv(%"class.android::media::midi::MidiDeviceInfo"* %6), !dbg !17119
  %38 = call i32 @_ZNK7android6VectorINS_8String16EE4sizeEv(%"class.android::Vector"* %37), !dbg !17120
  %39 = load %struct.AMIDI_DeviceInfo*, %struct.AMIDI_DeviceInfo** %5, align 4, !dbg !17121
  %40 = getelementptr inbounds %struct.AMIDI_DeviceInfo, %struct.AMIDI_DeviceInfo* %39, i32 0, i32 4, !dbg !17122
  store i32 %38, i32* %40, align 4, !dbg !17123
  store i32 0, i32* %3, align 4, !dbg !17124
  store i32 1, i32* %8, align 4
  br label %41, !dbg !17124

41:                                               ; preds = %22, %18
  %42 = call %"class.android::binder::Status"* @_ZN7android6binder6StatusD2Ev(%"class.android::binder::Status"* %7) #7, !dbg !17125
  %43 = call %"class.android::media::midi::MidiDeviceInfo"* @_ZN7android5media4midi14MidiDeviceInfoD2Ev(%"class.android::media::midi::MidiDeviceInfo"* %6) #7, !dbg !17125
  %44 = load i32, i32* %3, align 4, !dbg !17125
  ret i32 %44, !dbg !17125
}

; Function Attrs: nounwind readnone speculatable
declare void @llvm.dbg.declare(metadata, metadata, metadata) #1

; Function Attrs: noinline nounwind optnone sspstrong uwtable
define linkonce_odr hidden %"class.android::media::midi::MidiDeviceInfo"* @_ZN7android5media4midi14MidiDeviceInfoC2Ev(%"class.android::media::midi::MidiDeviceInfo"* returned) unnamed_addr #0 comdat align 2 !dbg !17126 {
  %2 = alloca %"class.android::media::midi::MidiDeviceInfo"*, align 4
  store %"class.android::media::midi::MidiDeviceInfo"* %0, %"class.android::media::midi::MidiDeviceInfo"** %2, align 4
  call void @llvm.dbg.declare(metadata %"class.android::media::midi::MidiDeviceInfo"** %2, metadata !17131, metadata !DIExpression()), !dbg !17133
  %3 = load %"class.android::media::midi::MidiDeviceInfo"*, %"class.android::media::midi::MidiDeviceInfo"** %2, align 4
  %4 = bitcast %"class.android::media::midi::MidiDeviceInfo"* %3 to %"class.android::Parcelable"*, !dbg !17134
  %5 = call %"class.android::Parcelable"* @_ZN7android10ParcelableC2Ev(%"class.android::Parcelable"* %4) #7, !dbg !17135
  %6 = bitcast %"class.android::media::midi::MidiDeviceInfo"* %3 to i32 (...)***, !dbg !17134
  store i32 (...)** bitcast (i8** getelementptr inbounds ({ [6 x i8*] }, { [6 x i8*] }* @_ZTVN7android5media4midi14MidiDeviceInfoE, i32 0, inrange i32 0, i32 2) to i32 (...)**), i32 (...)*** %6, align 4, !dbg !17134
  %7 = getelementptr inbounds %"class.android::media::midi::MidiDeviceInfo", %"class.android::media::midi::MidiDeviceInfo"* %3, i32 0, i32 3, !dbg !17135
  %8 = call %"class.android::Vector"* @_ZN7android6VectorINS_8String16EEC2Ev(%"class.android::Vector"* %7), !dbg !17135
  %9 = getelementptr inbounds %"class.android::media::midi::MidiDeviceInfo", %"class.android::media::midi::MidiDeviceInfo"* %3, i32 0, i32 4, !dbg !17135
  %10 = call %"class.android::Vector"* @_ZN7android6VectorINS_8String16EEC2Ev(%"class.android::Vector"* %9), !dbg !17135
  %11 = getelementptr inbounds %"class.android::media::midi::MidiDeviceInfo", %"class.android::media::midi::MidiDeviceInfo"* %3, i32 0, i32 5, !dbg !17135
  %12 = call %"class.android::os::PersistableBundle"* @_ZN7android2os17PersistableBundleC2Ev(%"class.android::os::PersistableBundle"* %11) #7, !dbg !17135
  ret %"class.android::media::midi::MidiDeviceInfo"* %3, !dbg !17134
}

; Function Attrs: noinline nounwind optnone sspstrong uwtable
define linkonce_odr hidden %"class.android::media::midi::BpMidiDeviceServer"* @_ZNK7android2spINS_5media4midi18BpMidiDeviceServerEEptEv(%"class.android::sp"*) #0 comdat align 2 !dbg !17136 {
  %2 = alloca %"class.android::sp"*, align 4
  store %"class.android::sp"* %0, %"class.android::sp"** %2, align 4
  call void @llvm.dbg.declare(metadata %"class.android::sp"** %2, metadata !17137, metadata !DIExpression()), !dbg !17139
  %3 = load %"class.android::sp"*, %"class.android::sp"** %2, align 4
  %4 = getelementptr inbounds %"class.android::sp", %"class.android::sp"* %3, i32 0, i32 0, !dbg !17140
  %5 = load %"class.android::media::midi::BpMidiDeviceServer"*, %"class.android::media::midi::BpMidiDeviceServer"** %4, align 4, !dbg !17140
  ret %"class.android::media::midi::BpMidiDeviceServer"* %5, !dbg !17141
}

; Function Attrs: noinline nounwind optnone sspstrong uwtable
define linkonce_odr hidden zeroext i1 @_ZNK7android6binder6Status4isOkEv(%"class.android::binder::Status"*) #0 comdat align 2 !dbg !17142 {
  %2 = alloca %"class.android::binder::Status"*, align 4
  store %"class.android::binder::Status"* %0, %"class.android::binder::Status"** %2, align 4
  call void @llvm.dbg.declare(metadata %"class.android::binder::Status"** %2, metadata !17143, metadata !DIExpression()), !dbg !17145
  %3 = load %"class.android::binder::Status"*, %"class.android::binder::Status"** %2, align 4
  %4 = getelementptr inbounds %"class.android::binder::Status", %"class.android::binder::Status"* %3, i32 0, i32 0, !dbg !17146
  %5 = load i32, i32* %4, align 4, !dbg !17146
  %6 = icmp eq i32 %5, 0, !dbg !17147
  ret i1 %6, !dbg !17148
}

declare i32 @__android_log_print(i32, i8*, i8*, ...) #2

; Function Attrs: noinline nounwind optnone sspstrong uwtable
define linkonce_odr hidden i32 @_ZNK7android6binder6Status16transactionErrorEv(%"class.android::binder::Status"*) #0 comdat align 2 !dbg !17149 {
  %2 = alloca %"class.android::binder::Status"*, align 4
  store %"class.android::binder::Status"* %0, %"class.android::binder::Status"** %2, align 4
  call void @llvm.dbg.declare(metadata %"class.android::binder::Status"** %2, metadata !17150, metadata !DIExpression()), !dbg !17151
  %3 = load %"class.android::binder::Status"*, %"class.android::binder::Status"** %2, align 4
  %4 = getelementptr inbounds %"class.android::binder::Status", %"class.android::binder::Status"* %3, i32 0, i32 0, !dbg !17152
  %5 = load i32, i32* %4, align 4, !dbg !17152
  %6 = icmp eq i32 %5, -129, !dbg !17153
  br i1 %6, label %7, label %10, !dbg !17152

7:                                                ; preds = %1
  %8 = getelementptr inbounds %"class.android::binder::Status", %"class.android::binder::Status"* %3, i32 0, i32 1, !dbg !17154
  %9 = load i32, i32* %8, align 4, !dbg !17154
  br label %11, !dbg !17152

10:                                               ; preds = %1
  br label %11, !dbg !17152

11:                                               ; preds = %10, %7
  %12 = phi i32 [ %9, %7 ], [ 0, %10 ], !dbg !17152
  ret i32 %12, !dbg !17155
}

; Function Attrs: noinline nounwind optnone sspstrong uwtable
define linkonce_odr hidden i32 @_ZNK7android5media4midi14MidiDeviceInfo7getTypeEv(%"class.android::media::midi::MidiDeviceInfo"*) #0 comdat align 2 !dbg !17156 {
  %2 = alloca %"class.android::media::midi::MidiDeviceInfo"*, align 4
  store %"class.android::media::midi::MidiDeviceInfo"* %0, %"class.android::media::midi::MidiDeviceInfo"** %2, align 4
  call void @llvm.dbg.declare(metadata %"class.android::media::midi::MidiDeviceInfo"** %2, metadata !17162, metadata !DIExpression()), !dbg !17164
  %3 = load %"class.android::media::midi::MidiDeviceInfo"*, %"class.android::media::midi::MidiDeviceInfo"** %2, align 4
  %4 = getelementptr inbounds %"class.android::media::midi::MidiDeviceInfo", %"class.android::media::midi::MidiDeviceInfo"* %3, i32 0, i32 1, !dbg !17165
  %5 = load i32, i32* %4, align 4, !dbg !17165
  ret i32 %5, !dbg !17166
}

; Function Attrs: noinline nounwind optnone sspstrong uwtable
define linkonce_odr hidden i32 @_ZNK7android5media4midi14MidiDeviceInfo6getUidEv(%"class.android::media::midi::MidiDeviceInfo"*) #0 comdat align 2 !dbg !17167 {
  %2 = alloca %"class.android::media::midi::MidiDeviceInfo"*, align 4
  store %"class.android::media::midi::MidiDeviceInfo"* %0, %"class.android::media::midi::MidiDeviceInfo"** %2, align 4
  call void @llvm.dbg.declare(metadata %"class.android::media::midi::MidiDeviceInfo"** %2, metadata !17169, metadata !DIExpression()), !dbg !17170
  %3 = load %"class.android::media::midi::MidiDeviceInfo"*, %"class.android::media::midi::MidiDeviceInfo"** %2, align 4
  %4 = getelementptr inbounds %"class.android::media::midi::MidiDeviceInfo", %"class.android::media::midi::MidiDeviceInfo"* %3, i32 0, i32 2, !dbg !17171
  %5 = load i32, i32* %4, align 4, !dbg !17171
  ret i32 %5, !dbg !17172
}

; Function Attrs: noinline nounwind optnone sspstrong uwtable
define linkonce_odr hidden zeroext i1 @_ZNK7android5media4midi14MidiDeviceInfo9isPrivateEv(%"class.android::media::midi::MidiDeviceInfo"*) #0 comdat align 2 !dbg !17173 {
  %2 = alloca %"class.android::media::midi::MidiDeviceInfo"*, align 4
  store %"class.android::media::midi::MidiDeviceInfo"* %0, %"class.android::media::midi::MidiDeviceInfo"** %2, align 4
  call void @llvm.dbg.declare(metadata %"class.android::media::midi::MidiDeviceInfo"** %2, metadata !17177, metadata !DIExpression()), !dbg !17178
  %3 = load %"class.android::media::midi::MidiDeviceInfo"*, %"class.android::media::midi::MidiDeviceInfo"** %2, align 4
  %4 = getelementptr inbounds %"class.android::media::midi::MidiDeviceInfo", %"class.android::media::midi::MidiDeviceInfo"* %3, i32 0, i32 6, !dbg !17179
  %5 = load i8, i8* %4, align 4, !dbg !17179
  %6 = trunc i8 %5 to i1, !dbg !17179
  ret i1 %6, !dbg !17180
}

; Function Attrs: noinline nounwind optnone sspstrong uwtable
define linkonce_odr hidden dereferenceable(20) %"class.android::Vector"* @_ZNK7android5media4midi14MidiDeviceInfo17getInputPortNamesEv(%"class.android::media::midi::MidiDeviceInfo"*) #0 comdat align 2 !dbg !17181 {
  %2 = alloca %"class.android::media::midi::MidiDeviceInfo"*, align 4
  store %"class.android::media::midi::MidiDeviceInfo"* %0, %"class.android::media::midi::MidiDeviceInfo"** %2, align 4
  call void @llvm.dbg.declare(metadata %"class.android::media::midi::MidiDeviceInfo"** %2, metadata !17333, metadata !DIExpression()), !dbg !17334
  %3 = load %"class.android::media::midi::MidiDeviceInfo"*, %"class.android::media::midi::MidiDeviceInfo"** %2, align 4
  %4 = getelementptr inbounds %"class.android::media::midi::MidiDeviceInfo", %"class.android::media::midi::MidiDeviceInfo"* %3, i32 0, i32 3, !dbg !17335
  ret %"class.android::Vector"* %4, !dbg !17336
}

; Function Attrs: noinline nounwind optnone sspstrong uwtable
define linkonce_odr hidden i32 @_ZNK7android6VectorINS_8String16EE4sizeEv(%"class.android::Vector"*) #0 comdat align 2 !dbg !17337 {
  %2 = alloca %"class.android::Vector"*, align 4
  store %"class.android::Vector"* %0, %"class.android::Vector"** %2, align 4
  call void @llvm.dbg.declare(metadata %"class.android::Vector"** %2, metadata !17338, metadata !DIExpression()), !dbg !17340
  %3 = load %"class.android::Vector"*, %"class.android::Vector"** %2, align 4
  %4 = bitcast %"class.android::Vector"* %3 to %"class.android::VectorImpl"*, !dbg !17341
  %5 = call i32 @_ZNK7android10VectorImpl4sizeEv(%"class.android::VectorImpl"* %4), !dbg !17341
  ret i32 %5, !dbg !17342
}

; Function Attrs: noinline nounwind optnone sspstrong uwtable
define linkonce_odr hidden dereferenceable(20) %"class.android::Vector"* @_ZNK7android5media4midi14MidiDeviceInfo18getOutputPortNamesEv(%"class.android::media::midi::MidiDeviceInfo"*) #0 comdat align 2 !dbg !17343 {
  %2 = alloca %"class.android::media::midi::MidiDeviceInfo"*, align 4
  store %"class.android::media::midi::MidiDeviceInfo"* %0, %"class.android::media::midi::MidiDeviceInfo"** %2, align 4
  call void @llvm.dbg.declare(metadata %"class.android::media::midi::MidiDeviceInfo"** %2, metadata !17345, metadata !DIExpression()), !dbg !17346
  %3 = load %"class.android::media::midi::MidiDeviceInfo"*, %"class.android::media::midi::MidiDeviceInfo"** %2, align 4
  %4 = getelementptr inbounds %"class.android::media::midi::MidiDeviceInfo", %"class.android::media::midi::MidiDeviceInfo"* %3, i32 0, i32 4, !dbg !17347
  ret %"class.android::Vector"* %4, !dbg !17348
}

; Function Attrs: noinline nounwind optnone sspstrong uwtable
define linkonce_odr hidden %"class.android::binder::Status"* @_ZN7android6binder6StatusD2Ev(%"class.android::binder::Status"* returned) unnamed_addr #0 comdat align 2 !dbg !17349 {
  %2 = alloca %"class.android::binder::Status"*, align 4
  store %"class.android::binder::Status"* %0, %"class.android::binder::Status"** %2, align 4
  call void @llvm.dbg.declare(metadata %"class.android::binder::Status"** %2, metadata !17350, metadata !DIExpression()), !dbg !17352
  %3 = load %"class.android::binder::Status"*, %"class.android::binder::Status"** %2, align 4
  %4 = getelementptr inbounds %"class.android::binder::Status", %"class.android::binder::Status"* %3, i32 0, i32 2, !dbg !17353
  %5 = call %"class.android::String8"* @_ZN7android7String8D1Ev(%"class.android::String8"* %4) #7, !dbg !17353
  ret %"class.android::binder::Status"* %3, !dbg !17355
}

; Function Attrs: noinline nounwind optnone sspstrong uwtable
define linkonce_odr hidden %"class.android::media::midi::MidiDeviceInfo"* @_ZN7android5media4midi14MidiDeviceInfoD2Ev(%"class.android::media::midi::MidiDeviceInfo"* returned) unnamed_addr #0 comdat align 2 !dbg !17356 {
  %2 = alloca %"class.android::media::midi::MidiDeviceInfo"*, align 4
  store %"class.android::media::midi::MidiDeviceInfo"* %0, %"class.android::media::midi::MidiDeviceInfo"** %2, align 4
  call void @llvm.dbg.declare(metadata %"class.android::media::midi::MidiDeviceInfo"** %2, metadata !17358, metadata !DIExpression()), !dbg !17359
  %3 = load %"class.android::media::midi::MidiDeviceInfo"*, %"class.android::media::midi::MidiDeviceInfo"** %2, align 4
  %4 = bitcast %"class.android::media::midi::MidiDeviceInfo"* %3 to i32 (...)***, !dbg !17360
  store i32 (...)** bitcast (i8** getelementptr inbounds ({ [6 x i8*] }, { [6 x i8*] }* @_ZTVN7android5media4midi14MidiDeviceInfoE, i32 0, inrange i32 0, i32 2) to i32 (...)**), i32 (...)*** %4, align 4, !dbg !17360
  %5 = getelementptr inbounds %"class.android::media::midi::MidiDeviceInfo", %"class.android::media::midi::MidiDeviceInfo"* %3, i32 0, i32 5, !dbg !17361
  %6 = call %"class.android::os::PersistableBundle"* @_ZN7android2os17PersistableBundleD2Ev(%"class.android::os::PersistableBundle"* %5) #7, !dbg !17361
  %7 = getelementptr inbounds %"class.android::media::midi::MidiDeviceInfo", %"class.android::media::midi::MidiDeviceInfo"* %3, i32 0, i32 4, !dbg !17361
  %8 = call %"class.android::Vector"* @_ZN7android6VectorINS_8String16EED2Ev(%"class.android::Vector"* %7) #7, !dbg !17361
  %9 = getelementptr inbounds %"class.android::media::midi::MidiDeviceInfo", %"class.android::media::midi::MidiDeviceInfo"* %3, i32 0, i32 3, !dbg !17361
  %10 = call %"class.android::Vector"* @_ZN7android6VectorINS_8String16EED2Ev(%"class.android::Vector"* %9) #7, !dbg !17361
  %11 = bitcast %"class.android::media::midi::MidiDeviceInfo"* %3 to %"class.android::Parcelable"*, !dbg !17361
  %12 = call %"class.android::Parcelable"* @_ZN7android10ParcelableD2Ev(%"class.android::Parcelable"* %11) #7, !dbg !17361
  ret %"class.android::media::midi::MidiDeviceInfo"* %3, !dbg !17360
}

; Function Attrs: noinline nounwind optnone sspstrong uwtable
define i32 @AMIDI_openOutputPort(%struct.AMIDI_Device*, i32, %struct.AMIDI_OutputPort**) #0 !dbg !17363 {
  %4 = alloca %struct.AMIDI_Device*, align 4
  %5 = alloca i32, align 4
  %6 = alloca %struct.AMIDI_OutputPort**, align 4
  store %struct.AMIDI_Device* %0, %struct.AMIDI_Device** %4, align 4
  call void @llvm.dbg.declare(metadata %struct.AMIDI_Device** %4, metadata !17369, metadata !DIExpression()), !dbg !17370
  store i32 %1, i32* %5, align 4
  call void @llvm.dbg.declare(metadata i32* %5, metadata !17371, metadata !DIExpression()), !dbg !17372
  store %struct.AMIDI_OutputPort** %2, %struct.AMIDI_OutputPort*** %6, align 4
  call void @llvm.dbg.declare(metadata %struct.AMIDI_OutputPort*** %6, metadata !17373, metadata !DIExpression()), !dbg !17374
  %7 = load %struct.AMIDI_Device*, %struct.AMIDI_Device** %4, align 4, !dbg !17375
  %8 = load i32, i32* %5, align 4, !dbg !17376
  %9 = load %struct.AMIDI_OutputPort**, %struct.AMIDI_OutputPort*** %6, align 4, !dbg !17377
  %10 = bitcast %struct.AMIDI_OutputPort** %9 to %struct.AMIDI_Port**, !dbg !17378
  %11 = call i32 @_ZL14AMIDI_openPortP12AMIDI_DeviceiiPP10AMIDI_Port(%struct.AMIDI_Device* %7, i32 %8, i32 0, %struct.AMIDI_Port** %10), !dbg !17379
  ret i32 %11, !dbg !17380
}

; Function Attrs: noinline nounwind optnone sspstrong uwtable
define internal i32 @_ZL14AMIDI_openPortP12AMIDI_DeviceiiPP10AMIDI_Port(%struct.AMIDI_Device*, i32, i32, %struct.AMIDI_Port**) #0 !dbg !17381 {
  %5 = alloca %"class.android::base::unique_fd_impl"*, align 4
  call void @llvm.dbg.declare(metadata %"class.android::base::unique_fd_impl"** %5, metadata !17384, metadata !DIExpression()), !dbg !17393
  %6 = alloca %"struct.std::__1::__atomic_base.0"*, align 4
  call void @llvm.dbg.declare(metadata %"struct.std::__1::__atomic_base.0"** %6, metadata !17395, metadata !DIExpression()), !dbg !17398
  %7 = alloca i32, align 4
  call void @llvm.dbg.declare(metadata i32* %7, metadata !17402, metadata !DIExpression()), !dbg !17403
  %8 = alloca i32, align 4
  call void @llvm.dbg.declare(metadata i32* %8, metadata !17404, metadata !DIExpression()), !dbg !17405
  %9 = alloca i32, align 4
  %10 = alloca %"struct.std::__1::atomic"*, align 4
  call void @llvm.dbg.declare(metadata %"struct.std::__1::atomic"** %10, metadata !17406, metadata !DIExpression()), !dbg !17408
  %11 = alloca i32, align 4
  call void @llvm.dbg.declare(metadata i32* %11, metadata !17409, metadata !DIExpression()), !dbg !17410
  %12 = alloca i32, align 4
  %13 = alloca %struct.AMIDI_Device*, align 4
  %14 = alloca i32, align 4
  %15 = alloca i32, align 4
  %16 = alloca %struct.AMIDI_Port**, align 4
  %17 = alloca %"class.android::sp.184", align 4
  %18 = alloca %"class.android::base::unique_fd_impl", align 4
  %19 = alloca %"class.android::binder::Status", align 4
  %20 = alloca %"class.android::sp.95", align 4
  %21 = alloca i1, align 1
  %22 = alloca %"class.android::sp.95", align 4
  %23 = alloca i1, align 1
  %24 = alloca i32, align 4
  %25 = alloca %struct.AMIDI_Port*, align 4
  store %struct.AMIDI_Device* %0, %struct.AMIDI_Device** %13, align 4
  call void @llvm.dbg.declare(metadata %struct.AMIDI_Device** %13, metadata !17411, metadata !DIExpression()), !dbg !17412
  store i32 %1, i32* %14, align 4
  call void @llvm.dbg.declare(metadata i32* %14, metadata !17413, metadata !DIExpression()), !dbg !17414
  store i32 %2, i32* %15, align 4
  call void @llvm.dbg.declare(metadata i32* %15, metadata !17415, metadata !DIExpression()), !dbg !17416
  store %struct.AMIDI_Port** %3, %struct.AMIDI_Port*** %16, align 4
  call void @llvm.dbg.declare(metadata %struct.AMIDI_Port*** %16, metadata !17417, metadata !DIExpression()), !dbg !17418
  call void @llvm.dbg.declare(metadata %"class.android::sp.184"* %17, metadata !17419, metadata !DIExpression()), !dbg !17497
  %26 = call i8* @_Znwj(i32 20) #8, !dbg !17498
  %27 = bitcast i8* %26 to %"class.android::BBinder"*, !dbg !17498
  %28 = call %"class.android::BBinder"* @_ZN7android7BBinderC1Ev(%"class.android::BBinder"* %27), !dbg !17499
  %29 = call %"class.android::sp.184"* @_ZN7android2spINS_7BBinderEEC2EPS1_(%"class.android::sp.184"* %17, %"class.android::BBinder"* %27), !dbg !17497
  call void @llvm.dbg.declare(metadata %"class.android::base::unique_fd_impl"* %18, metadata !17500, metadata !DIExpression()), !dbg !17501
  %30 = call %"class.android::base::unique_fd_impl"* @_ZN7android4base14unique_fd_implINS0_13DefaultCloserEEC2Ev(%"class.android::base::unique_fd_impl"* %18), !dbg !17501
  call void @llvm.dbg.declare(metadata %"class.android::binder::Status"* %19, metadata !17502, metadata !DIExpression()), !dbg !17503
  %31 = load i32, i32* %15, align 4, !dbg !17504
  %32 = icmp eq i32 %31, 0, !dbg !17505
  store i1 false, i1* %21, align 1
  store i1 false, i1* %23, align 1
  br i1 %32, label %33, label %43, !dbg !17504

33:                                               ; preds = %4
  %34 = load %struct.AMIDI_Device*, %struct.AMIDI_Device** %13, align 4, !dbg !17506
  %35 = getelementptr inbounds %struct.AMIDI_Device, %struct.AMIDI_Device* %34, i32 0, i32 0, !dbg !17507
  %36 = call %"class.android::media::midi::BpMidiDeviceServer"* @_ZNK7android2spINS_5media4midi18BpMidiDeviceServerEEptEv(%"class.android::sp"* %35), !dbg !17506
  %37 = call %"class.android::sp.95"* @_ZN7android2spINS_7IBinderEEC2INS_7BBinderEEERKNS0_IT_EE(%"class.android::sp.95"* %20, %"class.android::sp.184"* dereferenceable(4) %17), !dbg !17508
  store i1 true, i1* %21, align 1, !dbg !17508
  %38 = load i32, i32* %14, align 4, !dbg !17509
  %39 = bitcast %"class.android::media::midi::BpMidiDeviceServer"* %36 to void (%"class.android::binder::Status"*, %"class.android::media::midi::BpMidiDeviceServer"*, %"class.android::sp.95"*, i32, %"class.android::base::unique_fd_impl"*)***, !dbg !17510
  %40 = load void (%"class.android::binder::Status"*, %"class.android::media::midi::BpMidiDeviceServer"*, %"class.android::sp.95"*, i32, %"class.android::base::unique_fd_impl"*)**, void (%"class.android::binder::Status"*, %"class.android::media::midi::BpMidiDeviceServer"*, %"class.android::sp.95"*, i32, %"class.android::base::unique_fd_impl"*)*** %39, align 4, !dbg !17510
  %41 = getelementptr inbounds void (%"class.android::binder::Status"*, %"class.android::media::midi::BpMidiDeviceServer"*, %"class.android::sp.95"*, i32, %"class.android::base::unique_fd_impl"*)*, void (%"class.android::binder::Status"*, %"class.android::media::midi::BpMidiDeviceServer"*, %"class.android::sp.95"*, i32, %"class.android::base::unique_fd_impl"*)** %40, i64 5, !dbg !17510
  %42 = load void (%"class.android::binder::Status"*, %"class.android::media::midi::BpMidiDeviceServer"*, %"class.android::sp.95"*, i32, %"class.android::base::unique_fd_impl"*)*, void (%"class.android::binder::Status"*, %"class.android::media::midi::BpMidiDeviceServer"*, %"class.android::sp.95"*, i32, %"class.android::base::unique_fd_impl"*)** %41, align 4, !dbg !17510
  call void %42(%"class.android::binder::Status"* sret %19, %"class.android::media::midi::BpMidiDeviceServer"* %36, %"class.android::sp.95"* dereferenceable(4) %20, i32 %38, %"class.android::base::unique_fd_impl"* %18), !dbg !17510
  br label %53, !dbg !17504

43:                                               ; preds = %4
  %44 = load %struct.AMIDI_Device*, %struct.AMIDI_Device** %13, align 4, !dbg !17511
  %45 = getelementptr inbounds %struct.AMIDI_Device, %struct.AMIDI_Device* %44, i32 0, i32 0, !dbg !17512
  %46 = call %"class.android::media::midi::BpMidiDeviceServer"* @_ZNK7android2spINS_5media4midi18BpMidiDeviceServerEEptEv(%"class.android::sp"* %45), !dbg !17511
  %47 = call %"class.android::sp.95"* @_ZN7android2spINS_7IBinderEEC2INS_7BBinderEEERKNS0_IT_EE(%"class.android::sp.95"* %22, %"class.android::sp.184"* dereferenceable(4) %17), !dbg !17513
  store i1 true, i1* %23, align 1, !dbg !17513
  %48 = load i32, i32* %14, align 4, !dbg !17514
  %49 = bitcast %"class.android::media::midi::BpMidiDeviceServer"* %46 to void (%"class.android::binder::Status"*, %"class.android::media::midi::BpMidiDeviceServer"*, %"class.android::sp.95"*, i32, %"class.android::base::unique_fd_impl"*)***, !dbg !17515
  %50 = load void (%"class.android::binder::Status"*, %"class.android::media::midi::BpMidiDeviceServer"*, %"class.android::sp.95"*, i32, %"class.android::base::unique_fd_impl"*)**, void (%"class.android::binder::Status"*, %"class.android::media::midi::BpMidiDeviceServer"*, %"class.android::sp.95"*, i32, %"class.android::base::unique_fd_impl"*)*** %49, align 4, !dbg !17515
  %51 = getelementptr inbounds void (%"class.android::binder::Status"*, %"class.android::media::midi::BpMidiDeviceServer"*, %"class.android::sp.95"*, i32, %"class.android::base::unique_fd_impl"*)*, void (%"class.android::binder::Status"*, %"class.android::media::midi::BpMidiDeviceServer"*, %"class.android::sp.95"*, i32, %"class.android::base::unique_fd_impl"*)** %50, i64 4, !dbg !17515
  %52 = load void (%"class.android::binder::Status"*, %"class.android::media::midi::BpMidiDeviceServer"*, %"class.android::sp.95"*, i32, %"class.android::base::unique_fd_impl"*)*, void (%"class.android::binder::Status"*, %"class.android::media::midi::BpMidiDeviceServer"*, %"class.android::sp.95"*, i32, %"class.android::base::unique_fd_impl"*)** %51, align 4, !dbg !17515
  call void %52(%"class.android::binder::Status"* sret %19, %"class.android::media::midi::BpMidiDeviceServer"* %46, %"class.android::sp.95"* dereferenceable(4) %22, i32 %48, %"class.android::base::unique_fd_impl"* %18), !dbg !17515
  br label %53, !dbg !17504

53:                                               ; preds = %43, %33
  %54 = load i1, i1* %23, align 1, !dbg !17504
  br i1 %54, label %55, label %57, !dbg !17504

55:                                               ; preds = %53
  %56 = call %"class.android::sp.95"* @_ZN7android2spINS_7IBinderEED2Ev(%"class.android::sp.95"* %22) #7, !dbg !17504
  br label %57, !dbg !17504

57:                                               ; preds = %55, %53
  %58 = load i1, i1* %21, align 1, !dbg !17504
  br i1 %58, label %59, label %61, !dbg !17504

59:                                               ; preds = %57
  %60 = call %"class.android::sp.95"* @_ZN7android2spINS_7IBinderEED2Ev(%"class.android::sp.95"* %20) #7, !dbg !17504
  br label %61, !dbg !17504

61:                                               ; preds = %59, %57
  %62 = call zeroext i1 @_ZNK7android6binder6Status4isOkEv(%"class.android::binder::Status"* %19), !dbg !17516
  br i1 %62, label %67, label %63, !dbg !17518

63:                                               ; preds = %61
  %64 = call i32 @_ZNK7android6binder6Status16transactionErrorEv(%"class.android::binder::Status"* %19), !dbg !17519
  %65 = call i32 (i32, i8*, i8*, ...) @__android_log_print(i32 6, i8* getelementptr inbounds ([11 x i8], [11 x i8]* @.str, i32 0, i32 0), i8* getelementptr inbounds ([37 x i8], [37 x i8]* @.str.4, i32 0, i32 0), i32 %64), !dbg !17519
  %66 = call i32 @_ZNK7android6binder6Status16transactionErrorEv(%"class.android::binder::Status"* %19), !dbg !17521
  store i32 %66, i32* %12, align 4, !dbg !17522
  store i32 1, i32* %24, align 4
  br label %101, !dbg !17522

67:                                               ; preds = %61
  call void @llvm.dbg.declare(metadata %struct.AMIDI_Port** %25, metadata !17523, metadata !DIExpression()), !dbg !17524
  %68 = call i8* @_Znwj(i32 16) #8, !dbg !17525
  %69 = bitcast i8* %68 to %struct.AMIDI_Port*, !dbg !17525
  %70 = call %struct.AMIDI_Port* @_ZN10AMIDI_PortC2Ev(%struct.AMIDI_Port* %69), !dbg !17526
  store %struct.AMIDI_Port* %69, %struct.AMIDI_Port** %25, align 4, !dbg !17524
  %71 = load %struct.AMIDI_Port*, %struct.AMIDI_Port** %25, align 4, !dbg !17527
  %72 = getelementptr inbounds %struct.AMIDI_Port, %struct.AMIDI_Port* %71, i32 0, i32 0, !dbg !17528
  store %"struct.std::__1::atomic"* %72, %"struct.std::__1::atomic"** %10, align 4
  store i32 1, i32* %11, align 4
  %73 = load %"struct.std::__1::atomic"*, %"struct.std::__1::atomic"** %10, align 4
  %74 = bitcast %"struct.std::__1::atomic"* %73 to %"struct.std::__1::__atomic_base"*, !dbg !17529
  %75 = bitcast %"struct.std::__1::__atomic_base"* %74 to %"struct.std::__1::__atomic_base.0"*, !dbg !17529
  %76 = load i32, i32* %11, align 4, !dbg !17530
  store %"struct.std::__1::__atomic_base.0"* %75, %"struct.std::__1::__atomic_base.0"** %6, align 4
  store i32 %76, i32* %7, align 4
  store i32 5, i32* %8, align 4
  %77 = load %"struct.std::__1::__atomic_base.0"*, %"struct.std::__1::__atomic_base.0"** %6, align 4
  %78 = getelementptr inbounds %"struct.std::__1::__atomic_base.0", %"struct.std::__1::__atomic_base.0"* %77, i32 0, i32 0, !dbg !17531
  %79 = load i32, i32* %8, align 4, !dbg !17532
  %80 = load i32, i32* %7, align 4, !dbg !17533
  store i32 %80, i32* %9, align 4, !dbg !17534
  switch i32 %79, label %81 [
    i32 3, label %83
    i32 5, label %85
  ], !dbg !17534

81:                                               ; preds = %67
  %82 = load i32, i32* %9, align 4, !dbg !17534
  store atomic i32 %82, i32* %78 monotonic, align 4, !dbg !17534
  br label %87, !dbg !17534

83:                                               ; preds = %67
  %84 = load i32, i32* %9, align 4, !dbg !17534
  store atomic i32 %84, i32* %78 release, align 4, !dbg !17534
  br label %87, !dbg !17534

85:                                               ; preds = %67
  %86 = load i32, i32* %9, align 4, !dbg !17534
  store atomic i32 %86, i32* %78 seq_cst, align 4, !dbg !17534
  br label %87, !dbg !17534

87:                                               ; preds = %81, %83, %85
  %88 = load i32, i32* %11, align 4, !dbg !17535
  %89 = load %struct.AMIDI_Device*, %struct.AMIDI_Device** %13, align 4, !dbg !17536
  %90 = load %struct.AMIDI_Port*, %struct.AMIDI_Port** %25, align 4, !dbg !17537
  %91 = getelementptr inbounds %struct.AMIDI_Port, %struct.AMIDI_Port* %90, i32 0, i32 1, !dbg !17538
  store %struct.AMIDI_Device* %89, %struct.AMIDI_Device** %91, align 4, !dbg !17539
  %92 = load %struct.AMIDI_Port*, %struct.AMIDI_Port** %25, align 4, !dbg !17540
  %93 = getelementptr inbounds %struct.AMIDI_Port, %struct.AMIDI_Port* %92, i32 0, i32 2, !dbg !17541
  %94 = call dereferenceable(4) %"class.android::sp.95"* @_ZN7android2spINS_7IBinderEEaSINS_7BBinderEEERS2_RKNS0_IT_EE(%"class.android::sp.95"* %93, %"class.android::sp.184"* dereferenceable(4) %17), !dbg !17542
  store %"class.android::base::unique_fd_impl"* %18, %"class.android::base::unique_fd_impl"** %5, align 4
  %95 = load %"class.android::base::unique_fd_impl"*, %"class.android::base::unique_fd_impl"** %5, align 4, !dbg !17543
  %96 = load %struct.AMIDI_Port*, %struct.AMIDI_Port** %25, align 4, !dbg !17544
  %97 = getelementptr inbounds %struct.AMIDI_Port, %struct.AMIDI_Port* %96, i32 0, i32 3, !dbg !17545
  %98 = call dereferenceable(4) %"class.android::base::unique_fd_impl"* @_ZN7android4base14unique_fd_implINS0_13DefaultCloserEEaSEOS3_(%"class.android::base::unique_fd_impl"* %97, %"class.android::base::unique_fd_impl"* dereferenceable(4) %95), !dbg !17546
  %99 = load %struct.AMIDI_Port*, %struct.AMIDI_Port** %25, align 4, !dbg !17547
  %100 = load %struct.AMIDI_Port**, %struct.AMIDI_Port*** %16, align 4, !dbg !17548
  store %struct.AMIDI_Port* %99, %struct.AMIDI_Port** %100, align 4, !dbg !17549
  store i32 0, i32* %12, align 4, !dbg !17550
  store i32 1, i32* %24, align 4
  br label %101, !dbg !17550

101:                                              ; preds = %87, %63
  %102 = call %"class.android::binder::Status"* @_ZN7android6binder6StatusD2Ev(%"class.android::binder::Status"* %19) #7, !dbg !17551
  %103 = call %"class.android::base::unique_fd_impl"* @_ZN7android4base14unique_fd_implINS0_13DefaultCloserEED2Ev(%"class.android::base::unique_fd_impl"* %18) #7, !dbg !17551
  %104 = call %"class.android::sp.184"* @_ZN7android2spINS_7BBinderEED2Ev(%"class.android::sp.184"* %17) #7, !dbg !17551
  %105 = load i32, i32* %12, align 4, !dbg !17551
  ret i32 %105, !dbg !17551
}

; Function Attrs: noinline nounwind optnone sspstrong uwtable
define i32 @AMIDI_receive(%struct.AMIDI_OutputPort*, %struct.AMIDI_Message*, i32) #0 !dbg !17552 {
  %4 = alloca i32, align 4
  %5 = alloca i32, align 4
  call void @llvm.dbg.declare(metadata i32* %5, metadata !17566, metadata !DIExpression()), !dbg !17571
  %6 = alloca i8*, align 4
  call void @llvm.dbg.declare(metadata i8** %6, metadata !17574, metadata !DIExpression()), !dbg !17575
  %7 = alloca i32, align 4
  call void @llvm.dbg.declare(metadata i32* %7, metadata !17576, metadata !DIExpression()), !dbg !17577
  %8 = alloca i32, align 4
  call void @llvm.dbg.declare(metadata i32* %8, metadata !17578, metadata !DIExpression()), !dbg !17579
  %9 = alloca i32, align 4
  call void @llvm.dbg.declare(metadata i32* %9, metadata !17580, metadata !DIExpression()), !dbg !17581
  %10 = alloca i8*, align 4
  call void @llvm.dbg.declare(metadata i8** %10, metadata !17582, metadata !DIExpression()), !dbg !17583
  %11 = alloca i32, align 4
  call void @llvm.dbg.declare(metadata i32* %11, metadata !17585, metadata !DIExpression()), !dbg !17586
  %12 = alloca i32, align 4
  call void @llvm.dbg.declare(metadata i32* %12, metadata !17587, metadata !DIExpression()), !dbg !17588
  %13 = alloca i32, align 4
  call void @llvm.dbg.declare(metadata i32* %13, metadata !17589, metadata !DIExpression()), !dbg !17590
  %14 = alloca i32, align 4
  %15 = alloca %struct.pollfd*, align 4
  call void @llvm.dbg.declare(metadata %struct.pollfd** %15, metadata !17591, metadata !DIExpression()), !dbg !17606
  %16 = alloca i32, align 4
  call void @llvm.dbg.declare(metadata i32* %16, metadata !17608, metadata !DIExpression()), !dbg !17609
  %17 = alloca i32, align 4
  call void @llvm.dbg.declare(metadata i32* %17, metadata !17610, metadata !DIExpression()), !dbg !17611
  %18 = alloca i32, align 4
  call void @llvm.dbg.declare(metadata i32* %18, metadata !17612, metadata !DIExpression()), !dbg !17613
  %19 = alloca i32, align 4
  call void @llvm.dbg.declare(metadata i32* %19, metadata !17614, metadata !DIExpression()), !dbg !17615
  %20 = alloca i8*, align 4
  call void @llvm.dbg.declare(metadata i8** %20, metadata !17616, metadata !DIExpression()), !dbg !17617
  %21 = alloca i32, align 4
  call void @llvm.dbg.declare(metadata i32* %21, metadata !17623, metadata !DIExpression()), !dbg !17624
  %22 = alloca i8*, align 4
  call void @llvm.dbg.declare(metadata i8** %22, metadata !17625, metadata !DIExpression()), !dbg !17626
  %23 = alloca i32, align 4
  call void @llvm.dbg.declare(metadata i32* %23, metadata !17627, metadata !DIExpression()), !dbg !17628
  %24 = alloca %"struct.std::__1::__atomic_base.0"*, align 4
  call void @llvm.dbg.declare(metadata %"struct.std::__1::__atomic_base.0"** %24, metadata !17395, metadata !DIExpression()), !dbg !17629
  %25 = alloca i32, align 4
  call void @llvm.dbg.declare(metadata i32* %25, metadata !17402, metadata !DIExpression()), !dbg !17631
  %26 = alloca i32, align 4
  call void @llvm.dbg.declare(metadata i32* %26, metadata !17404, metadata !DIExpression()), !dbg !17632
  %27 = alloca i32, align 4
  %28 = alloca %"struct.std::__1::__atomic_base.0"*, align 4
  call void @llvm.dbg.declare(metadata %"struct.std::__1::__atomic_base.0"** %28, metadata !17633, metadata !DIExpression()), !dbg !17635
  %29 = alloca i32*, align 4
  call void @llvm.dbg.declare(metadata i32** %29, metadata !17638, metadata !DIExpression()), !dbg !17639
  %30 = alloca i32, align 4
  call void @llvm.dbg.declare(metadata i32* %30, metadata !17640, metadata !DIExpression()), !dbg !17641
  %31 = alloca i32, align 4
  call void @llvm.dbg.declare(metadata i32* %31, metadata !17642, metadata !DIExpression()), !dbg !17643
  %32 = alloca i32, align 4
  %33 = alloca i8, align 1
  %34 = alloca i32, align 4
  %35 = alloca %struct.AMIDI_OutputPort*, align 4
  %36 = alloca %struct.AMIDI_Message*, align 4
  %37 = alloca i32, align 4
  %38 = alloca %struct.AMIDI_Port*, align 4
  %39 = alloca i32, align 4
  %40 = alloca i32, align 4
  %41 = alloca i32, align 4
  %42 = alloca [1 x %struct.pollfd], align 4
  %43 = alloca i32, align 4
  %44 = alloca %struct.AMIDI_Message*, align 4
  %45 = alloca [1024 x i8], align 1
  %46 = alloca i32, align 4
  %47 = alloca i32, align 4
  store %struct.AMIDI_OutputPort* %0, %struct.AMIDI_OutputPort** %35, align 4
  call void @llvm.dbg.declare(metadata %struct.AMIDI_OutputPort** %35, metadata !17644, metadata !DIExpression()), !dbg !17645
  store %struct.AMIDI_Message* %1, %struct.AMIDI_Message** %36, align 4
  call void @llvm.dbg.declare(metadata %struct.AMIDI_Message** %36, metadata !17646, metadata !DIExpression()), !dbg !17647
  store i32 %2, i32* %37, align 4
  call void @llvm.dbg.declare(metadata i32* %37, metadata !17648, metadata !DIExpression()), !dbg !17649
  call void @llvm.dbg.declare(metadata %struct.AMIDI_Port** %38, metadata !17650, metadata !DIExpression()), !dbg !17651
  %48 = load %struct.AMIDI_OutputPort*, %struct.AMIDI_OutputPort** %35, align 4, !dbg !17652
  %49 = bitcast %struct.AMIDI_OutputPort* %48 to %struct.AMIDI_Port*, !dbg !17653
  store %struct.AMIDI_Port* %49, %struct.AMIDI_Port** %38, align 4, !dbg !17651
  call void @llvm.dbg.declare(metadata i32* %39, metadata !17654, metadata !DIExpression()), !dbg !17655
  store i32 1, i32* %39, align 4, !dbg !17655
  %50 = load %struct.AMIDI_Port*, %struct.AMIDI_Port** %38, align 4, !dbg !17656
  %51 = getelementptr inbounds %struct.AMIDI_Port, %struct.AMIDI_Port* %50, i32 0, i32 0, !dbg !17657
  %52 = bitcast %"struct.std::__1::atomic"* %51 to %"struct.std::__1::__atomic_base.0"*, !dbg !17656
  store %"struct.std::__1::__atomic_base.0"* %52, %"struct.std::__1::__atomic_base.0"** %28, align 4
  store i32* %39, i32** %29, align 4
  store i32 2, i32* %30, align 4
  store i32 5, i32* %31, align 4
  %53 = load %"struct.std::__1::__atomic_base.0"*, %"struct.std::__1::__atomic_base.0"** %28, align 4
  %54 = getelementptr inbounds %"struct.std::__1::__atomic_base.0", %"struct.std::__1::__atomic_base.0"* %53, i32 0, i32 0, !dbg !17658
  %55 = load i32, i32* %31, align 4, !dbg !17659
  %56 = load i32*, i32** %29, align 4, !dbg !17660
  %57 = load i32, i32* %30, align 4, !dbg !17661
  store i32 %57, i32* %32, align 4, !dbg !17662
  %58 = load i32, i32* %31, align 4, !dbg !17663
  switch i32 %55, label %59 [
    i32 1, label %65
    i32 2, label %65
    i32 3, label %66
    i32 4, label %72
    i32 5, label %73
  ], !dbg !17662

59:                                               ; preds = %3
  %60 = load i32, i32* %56, align 4, !dbg !17662
  %61 = load i32, i32* %32, align 4, !dbg !17662
  %62 = cmpxchg i32* %54, i32 %60, i32 %61 monotonic monotonic, !dbg !17662
  %63 = extractvalue { i32, i1 } %62, 0, !dbg !17662
  %64 = extractvalue { i32, i1 } %62, 1, !dbg !17662
  br i1 %64, label %75, label %74, !dbg !17662

65:                                               ; preds = %3, %3
  switch i32 %58, label %77 [
    i32 1, label %83
    i32 2, label %83
  ], !dbg !17662

66:                                               ; preds = %3
  %67 = load i32, i32* %56, align 4, !dbg !17662
  %68 = load i32, i32* %32, align 4, !dbg !17662
  %69 = cmpxchg i32* %54, i32 %67, i32 %68 release monotonic, !dbg !17662
  %70 = extractvalue { i32, i1 } %69, 0, !dbg !17662
  %71 = extractvalue { i32, i1 } %69, 1, !dbg !17662
  br i1 %71, label %97, label %96, !dbg !17662

72:                                               ; preds = %3
  switch i32 %58, label %99 [
    i32 1, label %105
    i32 2, label %105
  ], !dbg !17662

73:                                               ; preds = %3
  switch i32 %58, label %118 [
    i32 1, label %124
    i32 2, label %124
    i32 5, label %130
  ], !dbg !17662

74:                                               ; preds = %59
  store i32 %63, i32* %56, align 4, !dbg !17662
  br label %75, !dbg !17662

75:                                               ; preds = %74, %59
  %76 = zext i1 %64 to i8, !dbg !17662
  store i8 %76, i8* %33, align 1, !dbg !17662
  br label %146, !dbg !17662

77:                                               ; preds = %65
  %78 = load i32, i32* %56, align 4, !dbg !17662
  %79 = load i32, i32* %32, align 4, !dbg !17662
  %80 = cmpxchg i32* %54, i32 %78, i32 %79 acquire monotonic, !dbg !17662
  %81 = extractvalue { i32, i1 } %80, 0, !dbg !17662
  %82 = extractvalue { i32, i1 } %80, 1, !dbg !17662
  br i1 %82, label %91, label %90, !dbg !17662

83:                                               ; preds = %65, %65
  %84 = load i32, i32* %56, align 4, !dbg !17662
  %85 = load i32, i32* %32, align 4, !dbg !17662
  %86 = cmpxchg i32* %54, i32 %84, i32 %85 acquire acquire, !dbg !17662
  %87 = extractvalue { i32, i1 } %86, 0, !dbg !17662
  %88 = extractvalue { i32, i1 } %86, 1, !dbg !17662
  br i1 %88, label %94, label %93, !dbg !17662

89:                                               ; preds = %94, %91
  br label %146, !dbg !17662

90:                                               ; preds = %77
  store i32 %81, i32* %56, align 4, !dbg !17662
  br label %91, !dbg !17662

91:                                               ; preds = %90, %77
  %92 = zext i1 %82 to i8, !dbg !17662
  store i8 %92, i8* %33, align 1, !dbg !17662
  br label %89, !dbg !17662

93:                                               ; preds = %83
  store i32 %87, i32* %56, align 4, !dbg !17662
  br label %94, !dbg !17662

94:                                               ; preds = %93, %83
  %95 = zext i1 %88 to i8, !dbg !17662
  store i8 %95, i8* %33, align 1, !dbg !17662
  br label %89, !dbg !17662

96:                                               ; preds = %66
  store i32 %70, i32* %56, align 4, !dbg !17662
  br label %97, !dbg !17662

97:                                               ; preds = %96, %66
  %98 = zext i1 %71 to i8, !dbg !17662
  store i8 %98, i8* %33, align 1, !dbg !17662
  br label %146, !dbg !17662

99:                                               ; preds = %72
  %100 = load i32, i32* %56, align 4, !dbg !17662
  %101 = load i32, i32* %32, align 4, !dbg !17662
  %102 = cmpxchg i32* %54, i32 %100, i32 %101 acq_rel monotonic, !dbg !17662
  %103 = extractvalue { i32, i1 } %102, 0, !dbg !17662
  %104 = extractvalue { i32, i1 } %102, 1, !dbg !17662
  br i1 %104, label %113, label %112, !dbg !17662

105:                                              ; preds = %72, %72
  %106 = load i32, i32* %56, align 4, !dbg !17662
  %107 = load i32, i32* %32, align 4, !dbg !17662
  %108 = cmpxchg i32* %54, i32 %106, i32 %107 acq_rel acquire, !dbg !17662
  %109 = extractvalue { i32, i1 } %108, 0, !dbg !17662
  %110 = extractvalue { i32, i1 } %108, 1, !dbg !17662
  br i1 %110, label %116, label %115, !dbg !17662

111:                                              ; preds = %116, %113
  br label %146, !dbg !17662

112:                                              ; preds = %99
  store i32 %103, i32* %56, align 4, !dbg !17662
  br label %113, !dbg !17662

113:                                              ; preds = %112, %99
  %114 = zext i1 %104 to i8, !dbg !17662
  store i8 %114, i8* %33, align 1, !dbg !17662
  br label %111, !dbg !17662

115:                                              ; preds = %105
  store i32 %109, i32* %56, align 4, !dbg !17662
  br label %116, !dbg !17662

116:                                              ; preds = %115, %105
  %117 = zext i1 %110 to i8, !dbg !17662
  store i8 %117, i8* %33, align 1, !dbg !17662
  br label %111, !dbg !17662

118:                                              ; preds = %73
  %119 = load i32, i32* %56, align 4, !dbg !17662
  %120 = load i32, i32* %32, align 4, !dbg !17662
  %121 = cmpxchg i32* %54, i32 %119, i32 %120 seq_cst monotonic, !dbg !17662
  %122 = extractvalue { i32, i1 } %121, 0, !dbg !17662
  %123 = extractvalue { i32, i1 } %121, 1, !dbg !17662
  br i1 %123, label %138, label %137, !dbg !17662

124:                                              ; preds = %73, %73
  %125 = load i32, i32* %56, align 4, !dbg !17662
  %126 = load i32, i32* %32, align 4, !dbg !17662
  %127 = cmpxchg i32* %54, i32 %125, i32 %126 seq_cst acquire, !dbg !17662
  %128 = extractvalue { i32, i1 } %127, 0, !dbg !17662
  %129 = extractvalue { i32, i1 } %127, 1, !dbg !17662
  br i1 %129, label %141, label %140, !dbg !17662

130:                                              ; preds = %73
  %131 = load i32, i32* %56, align 4, !dbg !17662
  %132 = load i32, i32* %32, align 4, !dbg !17662
  %133 = cmpxchg i32* %54, i32 %131, i32 %132 seq_cst seq_cst, !dbg !17662
  %134 = extractvalue { i32, i1 } %133, 0, !dbg !17662
  %135 = extractvalue { i32, i1 } %133, 1, !dbg !17662
  br i1 %135, label %144, label %143, !dbg !17662

136:                                              ; preds = %144, %141, %138
  br label %146, !dbg !17662

137:                                              ; preds = %118
  store i32 %122, i32* %56, align 4, !dbg !17662
  br label %138, !dbg !17662

138:                                              ; preds = %137, %118
  %139 = zext i1 %123 to i8, !dbg !17662
  store i8 %139, i8* %33, align 1, !dbg !17662
  br label %136, !dbg !17662

140:                                              ; preds = %124
  store i32 %128, i32* %56, align 4, !dbg !17662
  br label %141, !dbg !17662

141:                                              ; preds = %140, %124
  %142 = zext i1 %129 to i8, !dbg !17662
  store i8 %142, i8* %33, align 1, !dbg !17662
  br label %136, !dbg !17662

143:                                              ; preds = %130
  store i32 %134, i32* %56, align 4, !dbg !17662
  br label %144, !dbg !17662

144:                                              ; preds = %143, %130
  %145 = zext i1 %135 to i8, !dbg !17662
  store i8 %145, i8* %33, align 1, !dbg !17662
  br label %136, !dbg !17662

146:                                              ; preds = %75, %89, %97, %111, %136
  %147 = load i8, i8* %33, align 1, !dbg !17662
  %148 = trunc i8 %147 to i1, !dbg !17662
  br i1 %148, label %150, label %149, !dbg !17664

149:                                              ; preds = %146
  store i32 -32, i32* %34, align 4, !dbg !17665
  br label %291, !dbg !17665

150:                                              ; preds = %146
  call void @llvm.dbg.declare(metadata i32* %40, metadata !17667, metadata !DIExpression()), !dbg !17668
  store i32 0, i32* %40, align 4, !dbg !17668
  call void @llvm.dbg.declare(metadata i32* %41, metadata !17669, metadata !DIExpression()), !dbg !17670
  store i32 0, i32* %41, align 4, !dbg !17670
  br label %151, !dbg !17671

151:                                              ; preds = %262, %215, %150
  %152 = load i32, i32* %41, align 4, !dbg !17672
  %153 = load i32, i32* %37, align 4, !dbg !17673
  %154 = icmp slt i32 %152, %153, !dbg !17674
  br i1 %154, label %155, label %268, !dbg !17671

155:                                              ; preds = %151
  call void @llvm.dbg.declare(metadata [1 x %struct.pollfd]* %42, metadata !17675, metadata !DIExpression()), !dbg !17679
  %156 = getelementptr inbounds [1 x %struct.pollfd], [1 x %struct.pollfd]* %42, i32 0, i32 0, !dbg !17680
  %157 = getelementptr inbounds %struct.pollfd, %struct.pollfd* %156, i32 0, i32 0, !dbg !17681
  %158 = load %struct.AMIDI_Port*, %struct.AMIDI_Port** %38, align 4, !dbg !17682
  %159 = getelementptr inbounds %struct.AMIDI_Port, %struct.AMIDI_Port* %158, i32 0, i32 3, !dbg !17683
  %160 = call i32 @_ZNK7android4base14unique_fd_implINS0_13DefaultCloserEEcviEv(%"class.android::base::unique_fd_impl"* %159), !dbg !17682
  store i32 %160, i32* %157, align 4, !dbg !17681
  %161 = getelementptr inbounds %struct.pollfd, %struct.pollfd* %156, i32 0, i32 1, !dbg !17681
  store i16 1, i16* %161, align 4, !dbg !17681
  %162 = getelementptr inbounds %struct.pollfd, %struct.pollfd* %156, i32 0, i32 2, !dbg !17681
  store i16 0, i16* %162, align 2, !dbg !17681
  call void @llvm.dbg.declare(metadata i32* %43, metadata !17684, metadata !DIExpression()), !dbg !17685
  %163 = getelementptr inbounds [1 x %struct.pollfd], [1 x %struct.pollfd]* %42, i32 0, i32 0, !dbg !17686
  store %struct.pollfd* %163, %struct.pollfd** %15, align 4
  store i32 8, i32* %16, align 4
  store i32 1, i32* %17, align 4
  store i32 0, i32* %18, align 4
  %164 = load i32, i32* %16, align 4, !dbg !17687
  store i32 %164, i32* %19, align 4, !dbg !17615
  %165 = load i32, i32* %19, align 4, !dbg !17688
  %166 = icmp eq i32 %165, -1, !dbg !17690
  br i1 %166, label %167, label %172, !dbg !17691

167:                                              ; preds = %155
  %168 = load %struct.pollfd*, %struct.pollfd** %15, align 4, !dbg !17692
  %169 = load i32, i32* %17, align 4, !dbg !17694
  %170 = load i32, i32* %18, align 4, !dbg !17695
  %171 = call i32 @poll(%struct.pollfd* %168, i32 %169, i32 %170) #7, !dbg !17696
  store i32 %171, i32* %14, align 4, !dbg !17697
  br label %178, !dbg !17697

172:                                              ; preds = %155
  %173 = load %struct.pollfd*, %struct.pollfd** %15, align 4, !dbg !17698
  %174 = load i32, i32* %17, align 4, !dbg !17699
  %175 = load i32, i32* %18, align 4, !dbg !17700
  %176 = load i32, i32* %19, align 4, !dbg !17701
  %177 = call i32 @__poll_chk(%struct.pollfd* %173, i32 %174, i32 %175, i32 %176) #7, !dbg !17702
  store i32 %177, i32* %14, align 4, !dbg !17703
  br label %178, !dbg !17703

178:                                              ; preds = %167, %172
  %179 = load i32, i32* %14, align 4, !dbg !17704
  store i32 %179, i32* %43, align 4, !dbg !17685
  %180 = load i32, i32* %43, align 4, !dbg !17705
  %181 = icmp slt i32 %180, 1, !dbg !17707
  br i1 %181, label %182, label %183, !dbg !17708

182:                                              ; preds = %178
  store i32 -38, i32* %40, align 4, !dbg !17709
  br label %268, !dbg !17711

183:                                              ; preds = %178
  call void @llvm.dbg.declare(metadata %struct.AMIDI_Message** %44, metadata !17712, metadata !DIExpression()), !dbg !17713
  %184 = load %struct.AMIDI_Message*, %struct.AMIDI_Message** %36, align 4, !dbg !17714
  %185 = load i32, i32* %41, align 4, !dbg !17715
  %186 = getelementptr inbounds %struct.AMIDI_Message, %struct.AMIDI_Message* %184, i32 %185, !dbg !17714
  store %struct.AMIDI_Message* %186, %struct.AMIDI_Message** %44, align 4, !dbg !17713
  call void @llvm.dbg.declare(metadata [1024 x i8]* %45, metadata !17716, metadata !DIExpression()), !dbg !17720
  %187 = getelementptr inbounds [1024 x i8], [1024 x i8]* %45, i32 0, i32 0, !dbg !17721
  store i8* %187, i8** %10, align 4
  store i32 1024, i32* %11, align 4
  store i32 0, i32* %12, align 4
  store i32 1024, i32* %13, align 4
  %188 = load i8*, i8** %10, align 4, !dbg !17722
  %189 = load i32, i32* %12, align 4, !dbg !17723
  %190 = load i32, i32* %13, align 4, !dbg !17724
  %191 = load i32, i32* %11, align 4, !dbg !17725
  %192 = call i8* @__memset_chk(i8* %188, i32 %189, i32 %190, i32 %191) #7, !dbg !17726
  call void @llvm.dbg.declare(metadata i32* %46, metadata !17727, metadata !DIExpression()), !dbg !17728
  %193 = load %struct.AMIDI_Port*, %struct.AMIDI_Port** %38, align 4, !dbg !17729
  %194 = getelementptr inbounds %struct.AMIDI_Port, %struct.AMIDI_Port* %193, i32 0, i32 3, !dbg !17730
  %195 = call i32 @_ZNK7android4base14unique_fd_implINS0_13DefaultCloserEEcviEv(%"class.android::base::unique_fd_impl"* %194), !dbg !17729
  %196 = getelementptr inbounds [1024 x i8], [1024 x i8]* %45, i32 0, i32 0, !dbg !17731
  store i32 %195, i32* %5, align 4
  store i8* %196, i8** %6, align 4
  store i32 1024, i32* %7, align 4
  store i32 1024, i32* %8, align 4
  %197 = load i32, i32* %7, align 4, !dbg !17732
  store i32 %197, i32* %9, align 4, !dbg !17581
  %198 = load i32, i32* %9, align 4, !dbg !17733
  %199 = icmp eq i32 %198, -1, !dbg !17735
  br i1 %199, label %200, label %205, !dbg !17736

200:                                              ; preds = %183
  %201 = load i32, i32* %5, align 4, !dbg !17737
  %202 = load i8*, i8** %6, align 4, !dbg !17739
  %203 = load i32, i32* %8, align 4, !dbg !17740
  %204 = call i32 @read(i32 %201, i8* %202, i32 %203) #7, !dbg !17741
  store i32 %204, i32* %4, align 4, !dbg !17742
  br label %211, !dbg !17742

205:                                              ; preds = %183
  %206 = load i32, i32* %5, align 4, !dbg !17743
  %207 = load i8*, i8** %6, align 4, !dbg !17744
  %208 = load i32, i32* %8, align 4, !dbg !17745
  %209 = load i32, i32* %9, align 4, !dbg !17746
  %210 = call i32 @__read_chk(i32 %206, i8* %207, i32 %208, i32 %209) #7, !dbg !17747
  store i32 %210, i32* %4, align 4, !dbg !17748
  br label %211, !dbg !17748

211:                                              ; preds = %200, %205
  %212 = load i32, i32* %4, align 4, !dbg !17749
  store i32 %212, i32* %46, align 4, !dbg !17728
  %213 = load i32, i32* %46, align 4, !dbg !17750
  %214 = icmp eq i32 %213, 4, !dbg !17752
  br i1 %214, label %215, label %216, !dbg !17753

215:                                              ; preds = %211
  br label %151, !dbg !17754, !llvm.loop !17756

216:                                              ; preds = %211
  %217 = load i32, i32* %46, align 4, !dbg !17758
  %218 = icmp slt i32 %217, 1, !dbg !17760
  br i1 %218, label %219, label %220, !dbg !17761

219:                                              ; preds = %216
  store i32 -61, i32* %40, align 4, !dbg !17762
  br label %268, !dbg !17764

220:                                              ; preds = %216
  call void @llvm.dbg.declare(metadata i32* %47, metadata !17765, metadata !DIExpression()), !dbg !17766
  store i32 0, i32* %47, align 4, !dbg !17766
  %221 = getelementptr inbounds [1024 x i8], [1024 x i8]* %45, i32 0, i32 0, !dbg !17767
  %222 = load i8, i8* %221, align 1, !dbg !17767
  %223 = zext i8 %222 to i32, !dbg !17767
  %224 = load %struct.AMIDI_Message*, %struct.AMIDI_Message** %44, align 4, !dbg !17768
  %225 = getelementptr inbounds %struct.AMIDI_Message, %struct.AMIDI_Message* %224, i32 0, i32 0, !dbg !17769
  store i32 %223, i32* %225, align 8, !dbg !17770
  %226 = load %struct.AMIDI_Message*, %struct.AMIDI_Message** %44, align 4, !dbg !17771
  %227 = getelementptr inbounds %struct.AMIDI_Message, %struct.AMIDI_Message* %226, i32 0, i32 3, !dbg !17772
  store i64 0, i64* %227, align 8, !dbg !17773
  %228 = load %struct.AMIDI_Message*, %struct.AMIDI_Message** %44, align 4, !dbg !17774
  %229 = getelementptr inbounds %struct.AMIDI_Message, %struct.AMIDI_Message* %228, i32 0, i32 0, !dbg !17775
  %230 = load i32, i32* %229, align 8, !dbg !17775
  %231 = icmp eq i32 %230, 1, !dbg !17776
  br i1 %231, label %232, label %262, !dbg !17777

232:                                              ; preds = %220
  %233 = load i32, i32* %46, align 4, !dbg !17778
  %234 = icmp sge i32 %233, 9, !dbg !17779
  br i1 %234, label %235, label %262, !dbg !17780

235:                                              ; preds = %232
  %236 = load i32, i32* %46, align 4, !dbg !17781
  %237 = sub nsw i32 %236, 9, !dbg !17782
  store i32 %237, i32* %47, align 4, !dbg !17783
  %238 = load i32, i32* %47, align 4, !dbg !17784
  %239 = icmp ne i32 %238, 0, !dbg !17784
  br i1 %239, label %240, label %253, !dbg !17785

240:                                              ; preds = %235
  %241 = load %struct.AMIDI_Message*, %struct.AMIDI_Message** %44, align 4, !dbg !17786
  %242 = getelementptr inbounds %struct.AMIDI_Message, %struct.AMIDI_Message* %241, i32 0, i32 1, !dbg !17787
  %243 = getelementptr inbounds [1015 x i8], [1015 x i8]* %242, i32 0, i32 0, !dbg !17786
  %244 = call i32 @llvm.objectsize.i32.p0i8(i8* %243, i1 false, i1 true, i1 false), !dbg !17788
  %245 = getelementptr inbounds [1024 x i8], [1024 x i8]* %45, i32 0, i32 0, !dbg !17789
  %246 = getelementptr inbounds i8, i8* %245, i32 1, !dbg !17790
  %247 = load i32, i32* %47, align 4, !dbg !17791
  store i8* %243, i8** %20, align 4
  store i32 %244, i32* %21, align 4
  store i8* %246, i8** %22, align 4
  store i32 %247, i32* %23, align 4
  %248 = load i8*, i8** %20, align 4, !dbg !17792
  %249 = load i8*, i8** %22, align 4, !dbg !17793
  %250 = load i32, i32* %23, align 4, !dbg !17794
  %251 = load i32, i32* %21, align 4, !dbg !17795
  %252 = call i8* @__memcpy_chk(i8* %248, i8* %249, i32 %250, i32 %251) #7, !dbg !17796
  br label %253, !dbg !17797

253:                                              ; preds = %240, %235
  %254 = getelementptr inbounds [1024 x i8], [1024 x i8]* %45, i32 0, i32 0, !dbg !17798
  %255 = load i32, i32* %46, align 4, !dbg !17799
  %256 = getelementptr inbounds i8, i8* %254, i32 %255, !dbg !17800
  %257 = getelementptr inbounds i8, i8* %256, i32 -8, !dbg !17801
  %258 = bitcast i8* %257 to i64*, !dbg !17802
  %259 = load i64, i64* %258, align 8, !dbg !17802
  %260 = load %struct.AMIDI_Message*, %struct.AMIDI_Message** %44, align 4, !dbg !17803
  %261 = getelementptr inbounds %struct.AMIDI_Message, %struct.AMIDI_Message* %260, i32 0, i32 3, !dbg !17804
  store i64 %259, i64* %261, align 8, !dbg !17805
  br label %262, !dbg !17806

262:                                              ; preds = %253, %232, %220
  %263 = load i32, i32* %47, align 4, !dbg !17807
  %264 = load %struct.AMIDI_Message*, %struct.AMIDI_Message** %44, align 4, !dbg !17808
  %265 = getelementptr inbounds %struct.AMIDI_Message, %struct.AMIDI_Message* %264, i32 0, i32 2, !dbg !17809
  store i32 %263, i32* %265, align 4, !dbg !17810
  %266 = load i32, i32* %41, align 4, !dbg !17811
  %267 = add nsw i32 %266, 1, !dbg !17811
  store i32 %267, i32* %41, align 4, !dbg !17811
  br label %151, !dbg !17671, !llvm.loop !17756

268:                                              ; preds = %219, %182, %151
  %269 = load %struct.AMIDI_Port*, %struct.AMIDI_Port** %38, align 4, !dbg !17812
  %270 = getelementptr inbounds %struct.AMIDI_Port, %struct.AMIDI_Port* %269, i32 0, i32 0, !dbg !17813
  %271 = bitcast %"struct.std::__1::atomic"* %270 to %"struct.std::__1::__atomic_base.0"*, !dbg !17812
  store %"struct.std::__1::__atomic_base.0"* %271, %"struct.std::__1::__atomic_base.0"** %24, align 4
  store i32 1, i32* %25, align 4
  store i32 5, i32* %26, align 4
  %272 = load %"struct.std::__1::__atomic_base.0"*, %"struct.std::__1::__atomic_base.0"** %24, align 4
  %273 = getelementptr inbounds %"struct.std::__1::__atomic_base.0", %"struct.std::__1::__atomic_base.0"* %272, i32 0, i32 0, !dbg !17814
  %274 = load i32, i32* %26, align 4, !dbg !17815
  %275 = load i32, i32* %25, align 4, !dbg !17816
  store i32 %275, i32* %27, align 4, !dbg !17817
  switch i32 %274, label %276 [
    i32 3, label %278
    i32 5, label %280
  ], !dbg !17817

276:                                              ; preds = %268
  %277 = load i32, i32* %27, align 4, !dbg !17817
  store atomic i32 %277, i32* %273 monotonic, align 4, !dbg !17817
  br label %282, !dbg !17817

278:                                              ; preds = %268
  %279 = load i32, i32* %27, align 4, !dbg !17817
  store atomic i32 %279, i32* %273 release, align 4, !dbg !17817
  br label %282, !dbg !17817

280:                                              ; preds = %268
  %281 = load i32, i32* %27, align 4, !dbg !17817
  store atomic i32 %281, i32* %273 seq_cst, align 4, !dbg !17817
  br label %282, !dbg !17817

282:                                              ; preds = %276, %278, %280
  %283 = load i32, i32* %40, align 4, !dbg !17818
  %284 = icmp eq i32 %283, 0, !dbg !17819
  br i1 %284, label %285, label %287, !dbg !17818

285:                                              ; preds = %282
  %286 = load i32, i32* %41, align 4, !dbg !17820
  br label %289, !dbg !17818

287:                                              ; preds = %282
  %288 = load i32, i32* %40, align 4, !dbg !17821
  br label %289, !dbg !17818

289:                                              ; preds = %287, %285
  %290 = phi i32 [ %286, %285 ], [ %288, %287 ], !dbg !17818
  store i32 %290, i32* %34, align 4, !dbg !17822
  br label %291, !dbg !17822

291:                                              ; preds = %289, %149
  %292 = load i32, i32* %34, align 4, !dbg !17823
  ret i32 %292, !dbg !17823
}

; Function Attrs: noinline nounwind optnone sspstrong uwtable
define linkonce_odr hidden i32 @_ZNK7android4base14unique_fd_implINS0_13DefaultCloserEEcviEv(%"class.android::base::unique_fd_impl"*) #0 comdat align 2 !dbg !17824 {
  %2 = alloca %"class.android::base::unique_fd_impl"*, align 4
  store %"class.android::base::unique_fd_impl"* %0, %"class.android::base::unique_fd_impl"** %2, align 4
  call void @llvm.dbg.declare(metadata %"class.android::base::unique_fd_impl"** %2, metadata !17825, metadata !DIExpression()), !dbg !17827
  %3 = load %"class.android::base::unique_fd_impl"*, %"class.android::base::unique_fd_impl"** %2, align 4
  %4 = call i32 @_ZNK7android4base14unique_fd_implINS0_13DefaultCloserEE3getEv(%"class.android::base::unique_fd_impl"* %3), !dbg !17828
  ret i32 %4, !dbg !17829
}

; Function Attrs: nounwind readnone speculatable
declare i32 @llvm.objectsize.i32.p0i8(i8*, i1 immarg, i1 immarg, i1 immarg) #1

; Function Attrs: noinline nounwind optnone sspstrong uwtable
define i32 @AMIDI_closeOutputPort(%struct.AMIDI_OutputPort*) #0 !dbg !17830 {
  %2 = alloca %struct.AMIDI_OutputPort*, align 4
  store %struct.AMIDI_OutputPort* %0, %struct.AMIDI_OutputPort** %2, align 4
  call void @llvm.dbg.declare(metadata %struct.AMIDI_OutputPort** %2, metadata !17833, metadata !DIExpression()), !dbg !17834
  %3 = load %struct.AMIDI_OutputPort*, %struct.AMIDI_OutputPort** %2, align 4, !dbg !17835
  %4 = bitcast %struct.AMIDI_OutputPort* %3 to %struct.AMIDI_Port*, !dbg !17836
  %5 = call i32 @_ZL15AMIDI_closePortP10AMIDI_Port(%struct.AMIDI_Port* %4), !dbg !17837
  ret i32 %5, !dbg !17838
}

; Function Attrs: noinline nounwind optnone sspstrong uwtable
define internal i32 @_ZL15AMIDI_closePortP10AMIDI_Port(%struct.AMIDI_Port*) #0 !dbg !17839 {
  %2 = alloca %"struct.std::__1::__atomic_base.0"*, align 4
  call void @llvm.dbg.declare(metadata %"struct.std::__1::__atomic_base.0"** %2, metadata !17842, metadata !DIExpression()), !dbg !17844
  %3 = alloca i32*, align 4
  call void @llvm.dbg.declare(metadata i32** %3, metadata !17846, metadata !DIExpression()), !dbg !17847
  %4 = alloca i32, align 4
  call void @llvm.dbg.declare(metadata i32* %4, metadata !17848, metadata !DIExpression()), !dbg !17849
  %5 = alloca i32, align 4
  call void @llvm.dbg.declare(metadata i32* %5, metadata !17850, metadata !DIExpression()), !dbg !17851
  %6 = alloca i32, align 4
  %7 = alloca i8, align 1
  %8 = alloca i32, align 4
  %9 = alloca %struct.AMIDI_Port*, align 4
  %10 = alloca i32, align 4
  %11 = alloca %"class.android::binder::Status", align 4
  %12 = alloca i32, align 4
  store %struct.AMIDI_Port* %0, %struct.AMIDI_Port** %9, align 4
  call void @llvm.dbg.declare(metadata %struct.AMIDI_Port** %9, metadata !17852, metadata !DIExpression()), !dbg !17853
  call void @llvm.dbg.declare(metadata i32* %10, metadata !17854, metadata !DIExpression()), !dbg !17855
  store i32 1, i32* %10, align 4, !dbg !17855
  br label %13, !dbg !17856

13:                                               ; preds = %118, %1
  %14 = load %struct.AMIDI_Port*, %struct.AMIDI_Port** %9, align 4, !dbg !17857
  %15 = getelementptr inbounds %struct.AMIDI_Port, %struct.AMIDI_Port* %14, i32 0, i32 0, !dbg !17858
  %16 = bitcast %"struct.std::__1::atomic"* %15 to %"struct.std::__1::__atomic_base.0"*, !dbg !17857
  store %"struct.std::__1::__atomic_base.0"* %16, %"struct.std::__1::__atomic_base.0"** %2, align 4
  store i32* %10, i32** %3, align 4
  store i32 0, i32* %4, align 4
  store i32 5, i32* %5, align 4
  %17 = load %"struct.std::__1::__atomic_base.0"*, %"struct.std::__1::__atomic_base.0"** %2, align 4
  %18 = getelementptr inbounds %"struct.std::__1::__atomic_base.0", %"struct.std::__1::__atomic_base.0"* %17, i32 0, i32 0, !dbg !17859
  %19 = load i32, i32* %5, align 4, !dbg !17860
  %20 = load i32*, i32** %3, align 4, !dbg !17861
  %21 = load i32, i32* %4, align 4, !dbg !17862
  store i32 %21, i32* %6, align 4, !dbg !17863
  %22 = load i32, i32* %5, align 4, !dbg !17864
  switch i32 %19, label %23 [
    i32 1, label %29
    i32 2, label %29
    i32 3, label %30
    i32 4, label %36
    i32 5, label %37
  ], !dbg !17863

23:                                               ; preds = %13
  %24 = load i32, i32* %20, align 4, !dbg !17863
  %25 = load i32, i32* %6, align 4, !dbg !17863
  %26 = cmpxchg weak i32* %18, i32 %24, i32 %25 monotonic monotonic, !dbg !17863
  %27 = extractvalue { i32, i1 } %26, 0, !dbg !17863
  %28 = extractvalue { i32, i1 } %26, 1, !dbg !17863
  br i1 %28, label %39, label %38, !dbg !17863

29:                                               ; preds = %13, %13
  switch i32 %22, label %41 [
    i32 1, label %47
    i32 2, label %47
  ], !dbg !17863

30:                                               ; preds = %13
  %31 = load i32, i32* %20, align 4, !dbg !17863
  %32 = load i32, i32* %6, align 4, !dbg !17863
  %33 = cmpxchg weak i32* %18, i32 %31, i32 %32 release monotonic, !dbg !17863
  %34 = extractvalue { i32, i1 } %33, 0, !dbg !17863
  %35 = extractvalue { i32, i1 } %33, 1, !dbg !17863
  br i1 %35, label %61, label %60, !dbg !17863

36:                                               ; preds = %13
  switch i32 %22, label %63 [
    i32 1, label %69
    i32 2, label %69
  ], !dbg !17863

37:                                               ; preds = %13
  switch i32 %22, label %82 [
    i32 1, label %88
    i32 2, label %88
    i32 5, label %94
  ], !dbg !17863

38:                                               ; preds = %23
  store i32 %27, i32* %20, align 4, !dbg !17863
  br label %39, !dbg !17863

39:                                               ; preds = %38, %23
  %40 = zext i1 %28 to i8, !dbg !17863
  store i8 %40, i8* %7, align 1, !dbg !17863
  br label %110, !dbg !17863

41:                                               ; preds = %29
  %42 = load i32, i32* %20, align 4, !dbg !17863
  %43 = load i32, i32* %6, align 4, !dbg !17863
  %44 = cmpxchg weak i32* %18, i32 %42, i32 %43 acquire monotonic, !dbg !17863
  %45 = extractvalue { i32, i1 } %44, 0, !dbg !17863
  %46 = extractvalue { i32, i1 } %44, 1, !dbg !17863
  br i1 %46, label %55, label %54, !dbg !17863

47:                                               ; preds = %29, %29
  %48 = load i32, i32* %20, align 4, !dbg !17863
  %49 = load i32, i32* %6, align 4, !dbg !17863
  %50 = cmpxchg weak i32* %18, i32 %48, i32 %49 acquire acquire, !dbg !17863
  %51 = extractvalue { i32, i1 } %50, 0, !dbg !17863
  %52 = extractvalue { i32, i1 } %50, 1, !dbg !17863
  br i1 %52, label %58, label %57, !dbg !17863

53:                                               ; preds = %58, %55
  br label %110, !dbg !17863

54:                                               ; preds = %41
  store i32 %45, i32* %20, align 4, !dbg !17863
  br label %55, !dbg !17863

55:                                               ; preds = %54, %41
  %56 = zext i1 %46 to i8, !dbg !17863
  store i8 %56, i8* %7, align 1, !dbg !17863
  br label %53, !dbg !17863

57:                                               ; preds = %47
  store i32 %51, i32* %20, align 4, !dbg !17863
  br label %58, !dbg !17863

58:                                               ; preds = %57, %47
  %59 = zext i1 %52 to i8, !dbg !17863
  store i8 %59, i8* %7, align 1, !dbg !17863
  br label %53, !dbg !17863

60:                                               ; preds = %30
  store i32 %34, i32* %20, align 4, !dbg !17863
  br label %61, !dbg !17863

61:                                               ; preds = %60, %30
  %62 = zext i1 %35 to i8, !dbg !17863
  store i8 %62, i8* %7, align 1, !dbg !17863
  br label %110, !dbg !17863

63:                                               ; preds = %36
  %64 = load i32, i32* %20, align 4, !dbg !17863
  %65 = load i32, i32* %6, align 4, !dbg !17863
  %66 = cmpxchg weak i32* %18, i32 %64, i32 %65 acq_rel monotonic, !dbg !17863
  %67 = extractvalue { i32, i1 } %66, 0, !dbg !17863
  %68 = extractvalue { i32, i1 } %66, 1, !dbg !17863
  br i1 %68, label %77, label %76, !dbg !17863

69:                                               ; preds = %36, %36
  %70 = load i32, i32* %20, align 4, !dbg !17863
  %71 = load i32, i32* %6, align 4, !dbg !17863
  %72 = cmpxchg weak i32* %18, i32 %70, i32 %71 acq_rel acquire, !dbg !17863
  %73 = extractvalue { i32, i1 } %72, 0, !dbg !17863
  %74 = extractvalue { i32, i1 } %72, 1, !dbg !17863
  br i1 %74, label %80, label %79, !dbg !17863

75:                                               ; preds = %80, %77
  br label %110, !dbg !17863

76:                                               ; preds = %63
  store i32 %67, i32* %20, align 4, !dbg !17863
  br label %77, !dbg !17863

77:                                               ; preds = %76, %63
  %78 = zext i1 %68 to i8, !dbg !17863
  store i8 %78, i8* %7, align 1, !dbg !17863
  br label %75, !dbg !17863

79:                                               ; preds = %69
  store i32 %73, i32* %20, align 4, !dbg !17863
  br label %80, !dbg !17863

80:                                               ; preds = %79, %69
  %81 = zext i1 %74 to i8, !dbg !17863
  store i8 %81, i8* %7, align 1, !dbg !17863
  br label %75, !dbg !17863

82:                                               ; preds = %37
  %83 = load i32, i32* %20, align 4, !dbg !17863
  %84 = load i32, i32* %6, align 4, !dbg !17863
  %85 = cmpxchg weak i32* %18, i32 %83, i32 %84 seq_cst monotonic, !dbg !17863
  %86 = extractvalue { i32, i1 } %85, 0, !dbg !17863
  %87 = extractvalue { i32, i1 } %85, 1, !dbg !17863
  br i1 %87, label %102, label %101, !dbg !17863

88:                                               ; preds = %37, %37
  %89 = load i32, i32* %20, align 4, !dbg !17863
  %90 = load i32, i32* %6, align 4, !dbg !17863
  %91 = cmpxchg weak i32* %18, i32 %89, i32 %90 seq_cst acquire, !dbg !17863
  %92 = extractvalue { i32, i1 } %91, 0, !dbg !17863
  %93 = extractvalue { i32, i1 } %91, 1, !dbg !17863
  br i1 %93, label %105, label %104, !dbg !17863

94:                                               ; preds = %37
  %95 = load i32, i32* %20, align 4, !dbg !17863
  %96 = load i32, i32* %6, align 4, !dbg !17863
  %97 = cmpxchg weak i32* %18, i32 %95, i32 %96 seq_cst seq_cst, !dbg !17863
  %98 = extractvalue { i32, i1 } %97, 0, !dbg !17863
  %99 = extractvalue { i32, i1 } %97, 1, !dbg !17863
  br i1 %99, label %108, label %107, !dbg !17863

100:                                              ; preds = %108, %105, %102
  br label %110, !dbg !17863

101:                                              ; preds = %82
  store i32 %86, i32* %20, align 4, !dbg !17863
  br label %102, !dbg !17863

102:                                              ; preds = %101, %82
  %103 = zext i1 %87 to i8, !dbg !17863
  store i8 %103, i8* %7, align 1, !dbg !17863
  br label %100, !dbg !17863

104:                                              ; preds = %88
  store i32 %92, i32* %20, align 4, !dbg !17863
  br label %105, !dbg !17863

105:                                              ; preds = %104, %88
  %106 = zext i1 %93 to i8, !dbg !17863
  store i8 %106, i8* %7, align 1, !dbg !17863
  br label %100, !dbg !17863

107:                                              ; preds = %94
  store i32 %98, i32* %20, align 4, !dbg !17863
  br label %108, !dbg !17863

108:                                              ; preds = %107, %94
  %109 = zext i1 %99 to i8, !dbg !17863
  store i8 %109, i8* %7, align 1, !dbg !17863
  br label %100, !dbg !17863

110:                                              ; preds = %39, %53, %61, %75, %100
  %111 = load i8, i8* %7, align 1, !dbg !17863
  %112 = trunc i8 %111 to i1, !dbg !17863
  %113 = xor i1 %112, true, !dbg !17865
  br i1 %113, label %114, label %119, !dbg !17856

114:                                              ; preds = %110
  %115 = load i32, i32* %10, align 4, !dbg !17866
  %116 = icmp eq i32 %115, 0, !dbg !17869
  br i1 %116, label %117, label %118, !dbg !17870

117:                                              ; preds = %114
  store i32 -22, i32* %8, align 4, !dbg !17871
  br label %143, !dbg !17871

118:                                              ; preds = %114
  br label %13, !dbg !17856, !llvm.loop !17873

119:                                              ; preds = %110
  call void @llvm.dbg.declare(metadata %"class.android::binder::Status"* %11, metadata !17875, metadata !DIExpression()), !dbg !17876
  %120 = load %struct.AMIDI_Port*, %struct.AMIDI_Port** %9, align 4, !dbg !17877
  %121 = getelementptr inbounds %struct.AMIDI_Port, %struct.AMIDI_Port* %120, i32 0, i32 1, !dbg !17878
  %122 = load %struct.AMIDI_Device*, %struct.AMIDI_Device** %121, align 4, !dbg !17878
  %123 = getelementptr inbounds %struct.AMIDI_Device, %struct.AMIDI_Device* %122, i32 0, i32 0, !dbg !17879
  %124 = call %"class.android::media::midi::BpMidiDeviceServer"* @_ZNK7android2spINS_5media4midi18BpMidiDeviceServerEEptEv(%"class.android::sp"* %123), !dbg !17877
  %125 = load %struct.AMIDI_Port*, %struct.AMIDI_Port** %9, align 4, !dbg !17880
  %126 = getelementptr inbounds %struct.AMIDI_Port, %struct.AMIDI_Port* %125, i32 0, i32 2, !dbg !17881
  %127 = bitcast %"class.android::media::midi::BpMidiDeviceServer"* %124 to void (%"class.android::binder::Status"*, %"class.android::media::midi::BpMidiDeviceServer"*, %"class.android::sp.95"*)***, !dbg !17882
  %128 = load void (%"class.android::binder::Status"*, %"class.android::media::midi::BpMidiDeviceServer"*, %"class.android::sp.95"*)**, void (%"class.android::binder::Status"*, %"class.android::media::midi::BpMidiDeviceServer"*, %"class.android::sp.95"*)*** %127, align 4, !dbg !17882
  %129 = getelementptr inbounds void (%"class.android::binder::Status"*, %"class.android::media::midi::BpMidiDeviceServer"*, %"class.android::sp.95"*)*, void (%"class.android::binder::Status"*, %"class.android::media::midi::BpMidiDeviceServer"*, %"class.android::sp.95"*)** %128, i64 6, !dbg !17882
  %130 = load void (%"class.android::binder::Status"*, %"class.android::media::midi::BpMidiDeviceServer"*, %"class.android::sp.95"*)*, void (%"class.android::binder::Status"*, %"class.android::media::midi::BpMidiDeviceServer"*, %"class.android::sp.95"*)** %129, align 4, !dbg !17882
  call void %130(%"class.android::binder::Status"* sret %11, %"class.android::media::midi::BpMidiDeviceServer"* %124, %"class.android::sp.95"* dereferenceable(4) %126), !dbg !17882
  %131 = call zeroext i1 @_ZNK7android6binder6Status4isOkEv(%"class.android::binder::Status"* %11), !dbg !17883
  br i1 %131, label %134, label %132, !dbg !17885

132:                                              ; preds = %119
  %133 = call i32 @_ZNK7android6binder6Status16transactionErrorEv(%"class.android::binder::Status"* %11), !dbg !17886
  store i32 %133, i32* %8, align 4, !dbg !17888
  store i32 1, i32* %12, align 4
  br label %141, !dbg !17888

134:                                              ; preds = %119
  %135 = load %struct.AMIDI_Port*, %struct.AMIDI_Port** %9, align 4, !dbg !17889
  %136 = icmp eq %struct.AMIDI_Port* %135, null, !dbg !17890
  br i1 %136, label %140, label %137, !dbg !17890

137:                                              ; preds = %134
  %138 = call %struct.AMIDI_Port* @_ZN10AMIDI_PortD2Ev(%struct.AMIDI_Port* %135) #7, !dbg !17890
  %139 = bitcast %struct.AMIDI_Port* %135 to i8*, !dbg !17890
  call void @_ZdlPv(i8* %139) #9, !dbg !17890
  br label %140, !dbg !17890

140:                                              ; preds = %137, %134
  store i32 0, i32* %8, align 4, !dbg !17891
  store i32 1, i32* %12, align 4
  br label %141, !dbg !17891

141:                                              ; preds = %140, %132
  %142 = call %"class.android::binder::Status"* @_ZN7android6binder6StatusD2Ev(%"class.android::binder::Status"* %11) #7, !dbg !17892
  br label %143

143:                                              ; preds = %141, %117
  %144 = load i32, i32* %8, align 4, !dbg !17892
  ret i32 %144, !dbg !17892
}

; Function Attrs: noinline nounwind optnone sspstrong uwtable
define i32 @AMIDI_openInputPort(%struct.AMIDI_Device*, i32, %struct.AMIDI_InputPort**) #0 !dbg !17893 {
  %4 = alloca %struct.AMIDI_Device*, align 4
  %5 = alloca i32, align 4
  %6 = alloca %struct.AMIDI_InputPort**, align 4
  store %struct.AMIDI_Device* %0, %struct.AMIDI_Device** %4, align 4
  call void @llvm.dbg.declare(metadata %struct.AMIDI_Device** %4, metadata !17899, metadata !DIExpression()), !dbg !17900
  store i32 %1, i32* %5, align 4
  call void @llvm.dbg.declare(metadata i32* %5, metadata !17901, metadata !DIExpression()), !dbg !17902
  store %struct.AMIDI_InputPort** %2, %struct.AMIDI_InputPort*** %6, align 4
  call void @llvm.dbg.declare(metadata %struct.AMIDI_InputPort*** %6, metadata !17903, metadata !DIExpression()), !dbg !17904
  %7 = load %struct.AMIDI_Device*, %struct.AMIDI_Device** %4, align 4, !dbg !17905
  %8 = load i32, i32* %5, align 4, !dbg !17906
  %9 = load %struct.AMIDI_InputPort**, %struct.AMIDI_InputPort*** %6, align 4, !dbg !17907
  %10 = bitcast %struct.AMIDI_InputPort** %9 to %struct.AMIDI_Port**, !dbg !17908
  %11 = call i32 @_ZL14AMIDI_openPortP12AMIDI_DeviceiiPP10AMIDI_Port(%struct.AMIDI_Device* %7, i32 %8, i32 1, %struct.AMIDI_Port** %10), !dbg !17909
  ret i32 %11, !dbg !17910
}

; Function Attrs: noinline nounwind optnone sspstrong uwtable
define i32 @AMIDI_closeInputPort(%struct.AMIDI_InputPort*) #0 !dbg !17911 {
  %2 = alloca %struct.AMIDI_InputPort*, align 4
  store %struct.AMIDI_InputPort* %0, %struct.AMIDI_InputPort** %2, align 4
  call void @llvm.dbg.declare(metadata %struct.AMIDI_InputPort** %2, metadata !17914, metadata !DIExpression()), !dbg !17915
  %3 = load %struct.AMIDI_InputPort*, %struct.AMIDI_InputPort** %2, align 4, !dbg !17916
  %4 = bitcast %struct.AMIDI_InputPort* %3 to %struct.AMIDI_Port*, !dbg !17917
  %5 = call i32 @_ZL15AMIDI_closePortP10AMIDI_Port(%struct.AMIDI_Port* %4), !dbg !17918
  ret i32 %5, !dbg !17919
}

; Function Attrs: noinline nounwind optnone sspstrong uwtable
define i32 @AMIDI_getMaxMessageSizeInBytes(%struct.AMIDI_InputPort*) #0 !dbg !17920 {
  %2 = alloca %struct.AMIDI_InputPort*, align 4
  store %struct.AMIDI_InputPort* %0, %struct.AMIDI_InputPort** %2, align 4
  call void @llvm.dbg.declare(metadata %struct.AMIDI_InputPort** %2, metadata !17923, metadata !DIExpression()), !dbg !17924
  ret i32 1015, !dbg !17925
}

; Function Attrs: noinline nounwind optnone sspstrong uwtable
define i32 @AMIDI_send(%struct.AMIDI_InputPort*, i8*, i32) #0 !dbg !17926 {
  %4 = alloca %struct.AMIDI_InputPort*, align 4
  %5 = alloca i8*, align 4
  %6 = alloca i32, align 4
  store %struct.AMIDI_InputPort* %0, %struct.AMIDI_InputPort** %4, align 4
  call void @llvm.dbg.declare(metadata %struct.AMIDI_InputPort** %4, metadata !17929, metadata !DIExpression()), !dbg !17930
  store i8* %1, i8** %5, align 4
  call void @llvm.dbg.declare(metadata i8** %5, metadata !17931, metadata !DIExpression()), !dbg !17932
  store i32 %2, i32* %6, align 4
  call void @llvm.dbg.declare(metadata i32* %6, metadata !17933, metadata !DIExpression()), !dbg !17934
  %7 = load %struct.AMIDI_InputPort*, %struct.AMIDI_InputPort** %4, align 4, !dbg !17935
  %8 = load i8*, i8** %5, align 4, !dbg !17936
  %9 = load i32, i32* %6, align 4, !dbg !17937
  %10 = call i32 @AMIDI_sendWithTimestamp(%struct.AMIDI_InputPort* %7, i8* %8, i32 %9, i64 0), !dbg !17938
  ret i32 %10, !dbg !17939
}

; Function Attrs: noinline nounwind optnone sspstrong uwtable
define i32 @AMIDI_sendWithTimestamp(%struct.AMIDI_InputPort*, i8*, i32, i64) #0 !dbg !17940 {
  %5 = alloca i32, align 4
  %6 = alloca i32, align 4
  call void @llvm.dbg.declare(metadata i32* %6, metadata !17943, metadata !DIExpression()), !dbg !17947
  %7 = alloca i8*, align 4
  call void @llvm.dbg.declare(metadata i8** %7, metadata !17949, metadata !DIExpression()), !dbg !17950
  %8 = alloca i32, align 4
  call void @llvm.dbg.declare(metadata i32* %8, metadata !17951, metadata !DIExpression()), !dbg !17952
  %9 = alloca i32, align 4
  call void @llvm.dbg.declare(metadata i32* %9, metadata !17953, metadata !DIExpression()), !dbg !17954
  %10 = alloca i32, align 4
  call void @llvm.dbg.declare(metadata i32* %10, metadata !17955, metadata !DIExpression()), !dbg !17956
  %11 = alloca i32, align 4
  %12 = alloca %struct.AMIDI_InputPort*, align 4
  %13 = alloca i8*, align 4
  %14 = alloca i32, align 4
  %15 = alloca i64, align 8
  %16 = alloca [1024 x i8], align 1
  %17 = alloca i32, align 4
  %18 = alloca i32, align 4
  store %struct.AMIDI_InputPort* %0, %struct.AMIDI_InputPort** %12, align 4
  call void @llvm.dbg.declare(metadata %struct.AMIDI_InputPort** %12, metadata !17957, metadata !DIExpression()), !dbg !17958
  store i8* %1, i8** %13, align 4
  call void @llvm.dbg.declare(metadata i8** %13, metadata !17959, metadata !DIExpression()), !dbg !17960
  store i32 %2, i32* %14, align 4
  call void @llvm.dbg.declare(metadata i32* %14, metadata !17961, metadata !DIExpression()), !dbg !17962
  store i64 %3, i64* %15, align 8
  call void @llvm.dbg.declare(metadata i64* %15, metadata !17963, metadata !DIExpression()), !dbg !17964
  %19 = load i32, i32* %14, align 4, !dbg !17965
  %20 = icmp sgt i32 %19, 1015, !dbg !17967
  br i1 %20, label %21, label %22, !dbg !17968

21:                                               ; preds = %4
  store i32 -22, i32* %11, align 4, !dbg !17969
  br label %60, !dbg !17969

22:                                               ; preds = %4
  call void @llvm.dbg.declare(metadata [1024 x i8]* %16, metadata !17971, metadata !DIExpression()), !dbg !17972
  call void @llvm.dbg.declare(metadata i32* %17, metadata !17973, metadata !DIExpression()), !dbg !17974
  %23 = getelementptr inbounds [1024 x i8], [1024 x i8]* %16, i32 0, i32 0, !dbg !17975
  %24 = load i8*, i8** %13, align 4, !dbg !17976
  %25 = load i32, i32* %14, align 4, !dbg !17977
  %26 = load i64, i64* %15, align 8, !dbg !17978
  %27 = call i32 @_ZL20AMIDI_makeSendBufferPhS_iy(i8* %23, i8* %24, i32 %25, i64 %26), !dbg !17979
  store i32 %27, i32* %17, align 4, !dbg !17974
  call void @llvm.dbg.declare(metadata i32* %18, metadata !17980, metadata !DIExpression()), !dbg !17981
  %28 = load %struct.AMIDI_InputPort*, %struct.AMIDI_InputPort** %12, align 4, !dbg !17982
  %29 = bitcast %struct.AMIDI_InputPort* %28 to %struct.AMIDI_Port*, !dbg !17983
  %30 = getelementptr inbounds %struct.AMIDI_Port, %struct.AMIDI_Port* %29, i32 0, i32 3, !dbg !17983
  %31 = call i32 @_ZNK7android4base14unique_fd_implINS0_13DefaultCloserEEcviEv(%"class.android::base::unique_fd_impl"* %30), !dbg !17984
  %32 = getelementptr inbounds [1024 x i8], [1024 x i8]* %16, i32 0, i32 0, !dbg !17985
  %33 = load i32, i32* %17, align 4, !dbg !17986
  store i32 %31, i32* %6, align 4
  store i8* %32, i8** %7, align 4
  store i32 1024, i32* %8, align 4
  store i32 %33, i32* %9, align 4
  %34 = load i32, i32* %8, align 4, !dbg !17987
  store i32 %34, i32* %10, align 4, !dbg !17956
  %35 = load i32, i32* %10, align 4, !dbg !17988
  %36 = icmp eq i32 %35, -1, !dbg !17990
  br i1 %36, label %37, label %42, !dbg !17991

37:                                               ; preds = %22
  %38 = load i32, i32* %6, align 4, !dbg !17992
  %39 = load i8*, i8** %7, align 4, !dbg !17994
  %40 = load i32, i32* %9, align 4, !dbg !17995
  %41 = call i32 @write(i32 %38, i8* %39, i32 %40) #7, !dbg !17996
  store i32 %41, i32* %5, align 4, !dbg !17997
  br label %48, !dbg !17997

42:                                               ; preds = %22
  %43 = load i32, i32* %6, align 4, !dbg !17998
  %44 = load i8*, i8** %7, align 4, !dbg !17999
  %45 = load i32, i32* %9, align 4, !dbg !18000
  %46 = load i32, i32* %10, align 4, !dbg !18001
  %47 = call i32 @__write_chk(i32 %43, i8* %44, i32 %45, i32 %46) #7, !dbg !18002
  store i32 %47, i32* %5, align 4, !dbg !18003
  br label %48, !dbg !18003

48:                                               ; preds = %37, %42
  %49 = load i32, i32* %5, align 4, !dbg !18004
  store i32 %49, i32* %18, align 4, !dbg !17981
  %50 = load i32, i32* %18, align 4, !dbg !18005
  %51 = load i32, i32* %17, align 4, !dbg !18007
  %52 = icmp slt i32 %50, %51, !dbg !18008
  br i1 %52, label %53, label %57, !dbg !18009

53:                                               ; preds = %48
  %54 = load i32, i32* %17, align 4, !dbg !18010
  %55 = load i32, i32* %18, align 4, !dbg !18010
  %56 = call i32 (i32, i8*, i8*, ...) @__android_log_print(i32 6, i8* getelementptr inbounds ([11 x i8], [11 x i8]* @.str, i32 0, i32 0), i8* getelementptr inbounds ([83 x i8], [83 x i8]* @.str.2, i32 0, i32 0), i32 %54, i32 %55), !dbg !18010
  br label %57, !dbg !18012

57:                                               ; preds = %53, %48
  %58 = load i32, i32* %18, align 4, !dbg !18013
  %59 = sub nsw i32 %58, 9, !dbg !18014
  store i32 %59, i32* %11, align 4, !dbg !18015
  br label %60, !dbg !18015

60:                                               ; preds = %57, %21
  %61 = load i32, i32* %11, align 4, !dbg !18016
  ret i32 %61, !dbg !18016
}

; Function Attrs: noinline nounwind optnone sspstrong uwtable
define internal i32 @_ZL20AMIDI_makeSendBufferPhS_iy(i8*, i8*, i32, i64) #0 !dbg !18017 {
  %5 = alloca i8*, align 4
  call void @llvm.dbg.declare(metadata i8** %5, metadata !17616, metadata !DIExpression()), !dbg !18020
  %6 = alloca i32, align 4
  call void @llvm.dbg.declare(metadata i32* %6, metadata !17623, metadata !DIExpression()), !dbg !18022
  %7 = alloca i8*, align 4
  call void @llvm.dbg.declare(metadata i8** %7, metadata !17625, metadata !DIExpression()), !dbg !18023
  %8 = alloca i32, align 4
  call void @llvm.dbg.declare(metadata i32* %8, metadata !17627, metadata !DIExpression()), !dbg !18024
  %9 = alloca i8*, align 4
  call void @llvm.dbg.declare(metadata i8** %9, metadata !17616, metadata !DIExpression()), !dbg !18025
  %10 = alloca i32, align 4
  call void @llvm.dbg.declare(metadata i32* %10, metadata !17623, metadata !DIExpression()), !dbg !18027
  %11 = alloca i8*, align 4
  call void @llvm.dbg.declare(metadata i8** %11, metadata !17625, metadata !DIExpression()), !dbg !18028
  %12 = alloca i32, align 4
  call void @llvm.dbg.declare(metadata i32* %12, metadata !17627, metadata !DIExpression()), !dbg !18029
  %13 = alloca i8*, align 4
  %14 = alloca i8*, align 4
  %15 = alloca i32, align 4
  %16 = alloca i64, align 8
  store i8* %0, i8** %13, align 4
  call void @llvm.dbg.declare(metadata i8** %13, metadata !18030, metadata !DIExpression()), !dbg !18031
  store i8* %1, i8** %14, align 4
  call void @llvm.dbg.declare(metadata i8** %14, metadata !18032, metadata !DIExpression()), !dbg !18033
  store i32 %2, i32* %15, align 4
  call void @llvm.dbg.declare(metadata i32* %15, metadata !18034, metadata !DIExpression()), !dbg !18035
  store i64 %3, i64* %16, align 8
  call void @llvm.dbg.declare(metadata i64* %16, metadata !18036, metadata !DIExpression()), !dbg !18037
  %17 = load i8*, i8** %13, align 4, !dbg !18038
  %18 = getelementptr inbounds i8, i8* %17, i32 0, !dbg !18038
  store i8 1, i8* %18, align 1, !dbg !18039
  %19 = load i8*, i8** %13, align 4, !dbg !18040
  %20 = getelementptr inbounds i8, i8* %19, i32 1, !dbg !18041
  %21 = call i32 @llvm.objectsize.i32.p0i8(i8* %20, i1 false, i1 true, i1 false), !dbg !18042
  %22 = load i8*, i8** %14, align 4, !dbg !18043
  %23 = load i32, i32* %15, align 4, !dbg !18044
  store i8* %20, i8** %9, align 4
  store i32 %21, i32* %10, align 4
  store i8* %22, i8** %11, align 4
  store i32 %23, i32* %12, align 4
  %24 = load i8*, i8** %9, align 4, !dbg !18045
  %25 = load i8*, i8** %11, align 4, !dbg !18046
  %26 = load i32, i32* %12, align 4, !dbg !18047
  %27 = load i32, i32* %10, align 4, !dbg !18048
  %28 = call i8* @__memcpy_chk(i8* %24, i8* %25, i32 %26, i32 %27) #7, !dbg !18049
  %29 = load i8*, i8** %13, align 4, !dbg !18050
  %30 = getelementptr inbounds i8, i8* %29, i32 1, !dbg !18051
  %31 = load i32, i32* %15, align 4, !dbg !18052
  %32 = getelementptr inbounds i8, i8* %30, i32 %31, !dbg !18053
  %33 = call i32 @llvm.objectsize.i32.p0i8(i8* %32, i1 false, i1 true, i1 false), !dbg !18054
  %34 = bitcast i64* %16 to i8*, !dbg !18055
  store i8* %32, i8** %5, align 4
  store i32 %33, i32* %6, align 4
  store i8* %34, i8** %7, align 4
  store i32 8, i32* %8, align 4
  %35 = load i8*, i8** %5, align 4, !dbg !18056
  %36 = load i8*, i8** %7, align 4, !dbg !18057
  %37 = load i32, i32* %8, align 4, !dbg !18058
  %38 = load i32, i32* %6, align 4, !dbg !18059
  %39 = call i8* @__memcpy_chk(i8* %35, i8* %36, i32 %37, i32 %38) #7, !dbg !18060
  %40 = load i32, i32* %15, align 4, !dbg !18061
  %41 = add nsw i32 %40, 9, !dbg !18062
  ret i32 %41, !dbg !18063
}

; Function Attrs: noinline nounwind optnone sspstrong uwtable
define i32 @AMIDI_flush(%struct.AMIDI_InputPort*) #0 !dbg !18064 {
  %2 = alloca i32, align 4
  %3 = alloca i32, align 4
  call void @llvm.dbg.declare(metadata i32* %3, metadata !17943, metadata !DIExpression()), !dbg !18065
  %4 = alloca i8*, align 4
  call void @llvm.dbg.declare(metadata i8** %4, metadata !17949, metadata !DIExpression()), !dbg !18067
  %5 = alloca i32, align 4
  call void @llvm.dbg.declare(metadata i32* %5, metadata !17951, metadata !DIExpression()), !dbg !18068
  %6 = alloca i32, align 4
  call void @llvm.dbg.declare(metadata i32* %6, metadata !17953, metadata !DIExpression()), !dbg !18069
  %7 = alloca i32, align 4
  call void @llvm.dbg.declare(metadata i32* %7, metadata !17955, metadata !DIExpression()), !dbg !18070
  %8 = alloca i32, align 4
  %9 = alloca %struct.AMIDI_InputPort*, align 4
  %10 = alloca i8, align 1
  %11 = alloca i32, align 4
  %12 = alloca i32, align 4
  store %struct.AMIDI_InputPort* %0, %struct.AMIDI_InputPort** %9, align 4
  call void @llvm.dbg.declare(metadata %struct.AMIDI_InputPort** %9, metadata !18071, metadata !DIExpression()), !dbg !18072
  call void @llvm.dbg.declare(metadata i8* %10, metadata !18073, metadata !DIExpression()), !dbg !18074
  store i8 2, i8* %10, align 1, !dbg !18074
  call void @llvm.dbg.declare(metadata i32* %11, metadata !18075, metadata !DIExpression()), !dbg !18076
  store i32 1, i32* %11, align 4, !dbg !18076
  call void @llvm.dbg.declare(metadata i32* %12, metadata !18077, metadata !DIExpression()), !dbg !18078
  %13 = load %struct.AMIDI_InputPort*, %struct.AMIDI_InputPort** %9, align 4, !dbg !18079
  %14 = bitcast %struct.AMIDI_InputPort* %13 to %struct.AMIDI_Port*, !dbg !18080
  %15 = getelementptr inbounds %struct.AMIDI_Port, %struct.AMIDI_Port* %14, i32 0, i32 3, !dbg !18080
  %16 = call i32 @_ZNK7android4base14unique_fd_implINS0_13DefaultCloserEEcviEv(%"class.android::base::unique_fd_impl"* %15), !dbg !18081
  %17 = load i32, i32* %11, align 4, !dbg !18082
  store i32 %16, i32* %3, align 4
  store i8* %10, i8** %4, align 4
  store i32 1, i32* %5, align 4
  store i32 %17, i32* %6, align 4
  %18 = load i32, i32* %5, align 4, !dbg !18083
  store i32 %18, i32* %7, align 4, !dbg !18070
  %19 = load i32, i32* %7, align 4, !dbg !18084
  %20 = icmp eq i32 %19, -1, !dbg !18085
  br i1 %20, label %21, label %26, !dbg !18086

21:                                               ; preds = %1
  %22 = load i32, i32* %3, align 4, !dbg !18087
  %23 = load i8*, i8** %4, align 4, !dbg !18088
  %24 = load i32, i32* %6, align 4, !dbg !18089
  %25 = call i32 @write(i32 %22, i8* %23, i32 %24) #7, !dbg !18090
  store i32 %25, i32* %2, align 4, !dbg !18091
  br label %32, !dbg !18091

26:                                               ; preds = %1
  %27 = load i32, i32* %3, align 4, !dbg !18092
  %28 = load i8*, i8** %4, align 4, !dbg !18093
  %29 = load i32, i32* %6, align 4, !dbg !18094
  %30 = load i32, i32* %7, align 4, !dbg !18095
  %31 = call i32 @__write_chk(i32 %27, i8* %28, i32 %29, i32 %30) #7, !dbg !18096
  store i32 %31, i32* %2, align 4, !dbg !18097
  br label %32, !dbg !18097

32:                                               ; preds = %21, %26
  %33 = load i32, i32* %2, align 4, !dbg !18098
  store i32 %33, i32* %12, align 4, !dbg !18078
  %34 = load i32, i32* %12, align 4, !dbg !18099
  %35 = load i32, i32* %11, align 4, !dbg !18101
  %36 = icmp slt i32 %34, %35, !dbg !18102
  br i1 %36, label %37, label %41, !dbg !18103

37:                                               ; preds = %32
  %38 = load i32, i32* %11, align 4, !dbg !18104
  %39 = load i32, i32* %12, align 4, !dbg !18104
  %40 = call i32 (i32, i8*, i8*, ...) @__android_log_print(i32 6, i8* getelementptr inbounds ([11 x i8], [11 x i8]* @.str, i32 0, i32 0), i8* getelementptr inbounds ([65 x i8], [65 x i8]* @.str.3, i32 0, i32 0), i32 %38, i32 %39), !dbg !18104
  store i32 -38, i32* %8, align 4, !dbg !18106
  br label %42, !dbg !18106

41:                                               ; preds = %32
  store i32 0, i32* %8, align 4, !dbg !18107
  br label %42, !dbg !18107

42:                                               ; preds = %41, %37
  %43 = load i32, i32* %8, align 4, !dbg !18108
  ret i32 %43, !dbg !18108
}

; Function Attrs: noinline nounwind optnone sspstrong uwtable
define linkonce_odr hidden %"class.android::Parcelable"* @_ZN7android10ParcelableC2Ev(%"class.android::Parcelable"* returned) unnamed_addr #0 comdat align 2 !dbg !18109 {
  %2 = alloca %"class.android::Parcelable"*, align 4
  store %"class.android::Parcelable"* %0, %"class.android::Parcelable"** %2, align 4
  call void @llvm.dbg.declare(metadata %"class.android::Parcelable"** %2, metadata !18110, metadata !DIExpression()), !dbg !18111
  %3 = load %"class.android::Parcelable"*, %"class.android::Parcelable"** %2, align 4
  %4 = bitcast %"class.android::Parcelable"* %3 to i32 (...)***, !dbg !18112
  store i32 (...)** bitcast (i8** getelementptr inbounds ({ [6 x i8*] }, { [6 x i8*] }* @_ZTVN7android10ParcelableE, i32 0, inrange i32 0, i32 2) to i32 (...)**), i32 (...)*** %4, align 4, !dbg !18112
  ret %"class.android::Parcelable"* %3, !dbg !18112
}

; Function Attrs: noinline nounwind optnone sspstrong uwtable
define linkonce_odr hidden %"class.android::Vector"* @_ZN7android6VectorINS_8String16EEC2Ev(%"class.android::Vector"* returned) unnamed_addr #0 comdat align 2 !dbg !18113 {
  %2 = alloca %"class.android::Vector"*, align 4
  store %"class.android::Vector"* %0, %"class.android::Vector"** %2, align 4
  call void @llvm.dbg.declare(metadata %"class.android::Vector"** %2, metadata !18114, metadata !DIExpression()), !dbg !18116
  %3 = load %"class.android::Vector"*, %"class.android::Vector"** %2, align 4
  %4 = bitcast %"class.android::Vector"* %3 to %"class.android::VectorImpl"*, !dbg !18117
  %5 = call %"class.android::VectorImpl"* @_ZN7android10VectorImplC2Ejj(%"class.android::VectorImpl"* %4, i32 4, i32 0), !dbg !18118
  %6 = bitcast %"class.android::Vector"* %3 to i32 (...)***, !dbg !18117
  store i32 (...)** bitcast (i8** getelementptr inbounds ({ [10 x i8*] }, { [10 x i8*] }* @_ZTVN7android6VectorINS_8String16EEE, i32 0, inrange i32 0, i32 2) to i32 (...)**), i32 (...)*** %6, align 4, !dbg !18117
  ret %"class.android::Vector"* %3, !dbg !18119
}

; Function Attrs: noinline nounwind optnone sspstrong uwtable
define linkonce_odr hidden %"class.android::os::PersistableBundle"* @_ZN7android2os17PersistableBundleC2Ev(%"class.android::os::PersistableBundle"* returned) unnamed_addr #0 comdat align 2 !dbg !18120 {
  %2 = alloca %"class.std::__1::__map_value_compare.94"*, align 4
  call void @llvm.dbg.declare(metadata %"class.std::__1::__map_value_compare.94"** %2, metadata !18125, metadata !DIExpression()), !dbg !18128
  %3 = alloca %"class.std::__1::map.86"*, align 4
  call void @llvm.dbg.declare(metadata %"class.std::__1::map.86"** %3, metadata !18132, metadata !DIExpression()), !dbg !18134
  %4 = alloca %"class.std::__1::__map_value_compare.94", align 1
  %5 = alloca %"struct.std::__1::less", align 1
  %6 = alloca %"class.std::__1::__map_value_compare.85"*, align 4
  call void @llvm.dbg.declare(metadata %"class.std::__1::__map_value_compare.85"** %6, metadata !18135, metadata !DIExpression()), !dbg !18138
  %7 = alloca %"class.std::__1::map.77"*, align 4
  call void @llvm.dbg.declare(metadata %"class.std::__1::map.77"** %7, metadata !18142, metadata !DIExpression()), !dbg !18144
  %8 = alloca %"class.std::__1::__map_value_compare.85", align 1
  %9 = alloca %"struct.std::__1::less", align 1
  %10 = alloca %"class.std::__1::__map_value_compare.76"*, align 4
  call void @llvm.dbg.declare(metadata %"class.std::__1::__map_value_compare.76"** %10, metadata !18145, metadata !DIExpression()), !dbg !18148
  %11 = alloca %"class.std::__1::map.68"*, align 4
  call void @llvm.dbg.declare(metadata %"class.std::__1::map.68"** %11, metadata !18152, metadata !DIExpression()), !dbg !18154
  %12 = alloca %"class.std::__1::__map_value_compare.76", align 1
  %13 = alloca %"struct.std::__1::less", align 1
  %14 = alloca %"class.std::__1::__map_value_compare.67"*, align 4
  call void @llvm.dbg.declare(metadata %"class.std::__1::__map_value_compare.67"** %14, metadata !18155, metadata !DIExpression()), !dbg !18158
  %15 = alloca %"class.std::__1::map.59"*, align 4
  call void @llvm.dbg.declare(metadata %"class.std::__1::map.59"** %15, metadata !18162, metadata !DIExpression()), !dbg !18164
  %16 = alloca %"class.std::__1::__map_value_compare.67", align 1
  %17 = alloca %"struct.std::__1::less", align 1
  %18 = alloca %"class.std::__1::__map_value_compare.58"*, align 4
  call void @llvm.dbg.declare(metadata %"class.std::__1::__map_value_compare.58"** %18, metadata !18165, metadata !DIExpression()), !dbg !18168
  %19 = alloca %"class.std::__1::map.50"*, align 4
  call void @llvm.dbg.declare(metadata %"class.std::__1::map.50"** %19, metadata !18172, metadata !DIExpression()), !dbg !18174
  %20 = alloca %"class.std::__1::__map_value_compare.58", align 1
  %21 = alloca %"struct.std::__1::less", align 1
  %22 = alloca %"class.std::__1::__map_value_compare.49"*, align 4
  call void @llvm.dbg.declare(metadata %"class.std::__1::__map_value_compare.49"** %22, metadata !18175, metadata !DIExpression()), !dbg !18178
  %23 = alloca %"class.std::__1::map.41"*, align 4
  call void @llvm.dbg.declare(metadata %"class.std::__1::map.41"** %23, metadata !18182, metadata !DIExpression()), !dbg !18184
  %24 = alloca %"class.std::__1::__map_value_compare.49", align 1
  %25 = alloca %"struct.std::__1::less", align 1
  %26 = alloca %"class.std::__1::__map_value_compare.40"*, align 4
  call void @llvm.dbg.declare(metadata %"class.std::__1::__map_value_compare.40"** %26, metadata !18185, metadata !DIExpression()), !dbg !18188
  %27 = alloca %"class.std::__1::map.32"*, align 4
  call void @llvm.dbg.declare(metadata %"class.std::__1::map.32"** %27, metadata !18192, metadata !DIExpression()), !dbg !18194
  %28 = alloca %"class.std::__1::__map_value_compare.40", align 1
  %29 = alloca %"struct.std::__1::less", align 1
  %30 = alloca %"class.std::__1::__map_value_compare.31"*, align 4
  call void @llvm.dbg.declare(metadata %"class.std::__1::__map_value_compare.31"** %30, metadata !18195, metadata !DIExpression()), !dbg !18198
  %31 = alloca %"class.std::__1::map.23"*, align 4
  call void @llvm.dbg.declare(metadata %"class.std::__1::map.23"** %31, metadata !18202, metadata !DIExpression()), !dbg !18204
  %32 = alloca %"class.std::__1::__map_value_compare.31", align 1
  %33 = alloca %"struct.std::__1::less", align 1
  %34 = alloca %"class.std::__1::__map_value_compare.22"*, align 4
  call void @llvm.dbg.declare(metadata %"class.std::__1::__map_value_compare.22"** %34, metadata !18205, metadata !DIExpression()), !dbg !18208
  %35 = alloca %"class.std::__1::map.14"*, align 4
  call void @llvm.dbg.declare(metadata %"class.std::__1::map.14"** %35, metadata !18212, metadata !DIExpression()), !dbg !18214
  %36 = alloca %"class.std::__1::__map_value_compare.22", align 1
  %37 = alloca %"struct.std::__1::less", align 1
  %38 = alloca %"class.std::__1::__map_value_compare.13"*, align 4
  call void @llvm.dbg.declare(metadata %"class.std::__1::__map_value_compare.13"** %38, metadata !18215, metadata !DIExpression()), !dbg !18218
  %39 = alloca %"class.std::__1::map.5"*, align 4
  call void @llvm.dbg.declare(metadata %"class.std::__1::map.5"** %39, metadata !18222, metadata !DIExpression()), !dbg !18224
  %40 = alloca %"class.std::__1::__map_value_compare.13", align 1
  %41 = alloca %"struct.std::__1::less", align 1
  %42 = alloca %"class.std::__1::__map_value_compare"*, align 4
  call void @llvm.dbg.declare(metadata %"class.std::__1::__map_value_compare"** %42, metadata !18225, metadata !DIExpression()), !dbg !18228
  %43 = alloca %"class.std::__1::map"*, align 4
  call void @llvm.dbg.declare(metadata %"class.std::__1::map"** %43, metadata !18232, metadata !DIExpression()), !dbg !18234
  %44 = alloca %"class.std::__1::__map_value_compare", align 1
  %45 = alloca %"struct.std::__1::less", align 1
  %46 = alloca %"class.android::os::PersistableBundle"*, align 4
  store %"class.android::os::PersistableBundle"* %0, %"class.android::os::PersistableBundle"** %46, align 4
  call void @llvm.dbg.declare(metadata %"class.android::os::PersistableBundle"** %46, metadata !18235, metadata !DIExpression()), !dbg !18237
  %47 = load %"class.android::os::PersistableBundle"*, %"class.android::os::PersistableBundle"** %46, align 4
  %48 = bitcast %"class.android::os::PersistableBundle"* %47 to %"class.android::Parcelable"*, !dbg !18238
  %49 = call %"class.android::Parcelable"* @_ZN7android10ParcelableC2Ev(%"class.android::Parcelable"* %48) #7, !dbg !18239
  %50 = bitcast %"class.android::os::PersistableBundle"* %47 to i32 (...)***, !dbg !18238
  store i32 (...)** bitcast (i8** getelementptr inbounds ({ [6 x i8*] }, { [6 x i8*] }* @_ZTVN7android2os17PersistableBundleE, i32 0, inrange i32 0, i32 2) to i32 (...)**), i32 (...)*** %50, align 4, !dbg !18238
  %51 = getelementptr inbounds %"class.android::os::PersistableBundle", %"class.android::os::PersistableBundle"* %47, i32 0, i32 1, !dbg !18239
  store %"class.std::__1::map"* %51, %"class.std::__1::map"** %43, align 4
  %52 = load %"class.std::__1::map"*, %"class.std::__1::map"** %43, align 4
  %53 = getelementptr inbounds %"class.std::__1::map", %"class.std::__1::map"* %52, i32 0, i32 0, !dbg !18240
  store %"class.std::__1::__map_value_compare"* %44, %"class.std::__1::__map_value_compare"** %42, align 4
  call void @llvm.dbg.declare(metadata !793, metadata !18241, metadata !DIExpression()) #7, !dbg !18242
  %54 = load %"class.std::__1::__map_value_compare"*, %"class.std::__1::__map_value_compare"** %42, align 4
  %55 = bitcast %"class.std::__1::__map_value_compare"* %54 to %"struct.std::__1::less"*, !dbg !18243
  %56 = call %"class.std::__1::__tree"* @_ZNSt3__16__treeINS_12__value_typeIN7android8String16EbEENS_19__map_value_compareIS3_S4_NS_4lessIS3_EELb1EEENS_9allocatorIS4_EEEC2ERKS8_(%"class.std::__1::__tree"* %53, %"class.std::__1::__map_value_compare"* dereferenceable(1) %44) #7, !dbg !18240
  %57 = getelementptr inbounds %"class.android::os::PersistableBundle", %"class.android::os::PersistableBundle"* %47, i32 0, i32 2, !dbg !18239
  store %"class.std::__1::map.5"* %57, %"class.std::__1::map.5"** %39, align 4
  %58 = load %"class.std::__1::map.5"*, %"class.std::__1::map.5"** %39, align 4
  %59 = getelementptr inbounds %"class.std::__1::map.5", %"class.std::__1::map.5"* %58, i32 0, i32 0, !dbg !18244
  store %"class.std::__1::__map_value_compare.13"* %40, %"class.std::__1::__map_value_compare.13"** %38, align 4
  call void @llvm.dbg.declare(metadata !793, metadata !18245, metadata !DIExpression()) #7, !dbg !18246
  %60 = load %"class.std::__1::__map_value_compare.13"*, %"class.std::__1::__map_value_compare.13"** %38, align 4
  %61 = bitcast %"class.std::__1::__map_value_compare.13"* %60 to %"struct.std::__1::less"*, !dbg !18247
  %62 = call %"class.std::__1::__tree.6"* @_ZNSt3__16__treeINS_12__value_typeIN7android8String16EiEENS_19__map_value_compareIS3_S4_NS_4lessIS3_EELb1EEENS_9allocatorIS4_EEEC2ERKS8_(%"class.std::__1::__tree.6"* %59, %"class.std::__1::__map_value_compare.13"* dereferenceable(1) %40) #7, !dbg !18244
  %63 = getelementptr inbounds %"class.android::os::PersistableBundle", %"class.android::os::PersistableBundle"* %47, i32 0, i32 3, !dbg !18239
  store %"class.std::__1::map.14"* %63, %"class.std::__1::map.14"** %35, align 4
  %64 = load %"class.std::__1::map.14"*, %"class.std::__1::map.14"** %35, align 4
  %65 = getelementptr inbounds %"class.std::__1::map.14", %"class.std::__1::map.14"* %64, i32 0, i32 0, !dbg !18248
  store %"class.std::__1::__map_value_compare.22"* %36, %"class.std::__1::__map_value_compare.22"** %34, align 4
  call void @llvm.dbg.declare(metadata !793, metadata !18249, metadata !DIExpression()) #7, !dbg !18250
  %66 = load %"class.std::__1::__map_value_compare.22"*, %"class.std::__1::__map_value_compare.22"** %34, align 4
  %67 = bitcast %"class.std::__1::__map_value_compare.22"* %66 to %"struct.std::__1::less"*, !dbg !18251
  %68 = call %"class.std::__1::__tree.15"* @_ZNSt3__16__treeINS_12__value_typeIN7android8String16ExEENS_19__map_value_compareIS3_S4_NS_4lessIS3_EELb1EEENS_9allocatorIS4_EEEC2ERKS8_(%"class.std::__1::__tree.15"* %65, %"class.std::__1::__map_value_compare.22"* dereferenceable(1) %36) #7, !dbg !18248
  %69 = getelementptr inbounds %"class.android::os::PersistableBundle", %"class.android::os::PersistableBundle"* %47, i32 0, i32 4, !dbg !18239
  store %"class.std::__1::map.23"* %69, %"class.std::__1::map.23"** %31, align 4
  %70 = load %"class.std::__1::map.23"*, %"class.std::__1::map.23"** %31, align 4
  %71 = getelementptr inbounds %"class.std::__1::map.23", %"class.std::__1::map.23"* %70, i32 0, i32 0, !dbg !18252
  store %"class.std::__1::__map_value_compare.31"* %32, %"class.std::__1::__map_value_compare.31"** %30, align 4
  call void @llvm.dbg.declare(metadata !793, metadata !18253, metadata !DIExpression()) #7, !dbg !18254
  %72 = load %"class.std::__1::__map_value_compare.31"*, %"class.std::__1::__map_value_compare.31"** %30, align 4
  %73 = bitcast %"class.std::__1::__map_value_compare.31"* %72 to %"struct.std::__1::less"*, !dbg !18255
  %74 = call %"class.std::__1::__tree.24"* @_ZNSt3__16__treeINS_12__value_typeIN7android8String16EdEENS_19__map_value_compareIS3_S4_NS_4lessIS3_EELb1EEENS_9allocatorIS4_EEEC2ERKS8_(%"class.std::__1::__tree.24"* %71, %"class.std::__1::__map_value_compare.31"* dereferenceable(1) %32) #7, !dbg !18252
  %75 = getelementptr inbounds %"class.android::os::PersistableBundle", %"class.android::os::PersistableBundle"* %47, i32 0, i32 5, !dbg !18239
  store %"class.std::__1::map.32"* %75, %"class.std::__1::map.32"** %27, align 4
  %76 = load %"class.std::__1::map.32"*, %"class.std::__1::map.32"** %27, align 4
  %77 = getelementptr inbounds %"class.std::__1::map.32", %"class.std::__1::map.32"* %76, i32 0, i32 0, !dbg !18256
  store %"class.std::__1::__map_value_compare.40"* %28, %"class.std::__1::__map_value_compare.40"** %26, align 4
  call void @llvm.dbg.declare(metadata !793, metadata !18257, metadata !DIExpression()) #7, !dbg !18258
  %78 = load %"class.std::__1::__map_value_compare.40"*, %"class.std::__1::__map_value_compare.40"** %26, align 4
  %79 = bitcast %"class.std::__1::__map_value_compare.40"* %78 to %"struct.std::__1::less"*, !dbg !18259
  %80 = call %"class.std::__1::__tree.33"* @_ZNSt3__16__treeINS_12__value_typeIN7android8String16ES3_EENS_19__map_value_compareIS3_S4_NS_4lessIS3_EELb1EEENS_9allocatorIS4_EEEC2ERKS8_(%"class.std::__1::__tree.33"* %77, %"class.std::__1::__map_value_compare.40"* dereferenceable(1) %28) #7, !dbg !18256
  %81 = getelementptr inbounds %"class.android::os::PersistableBundle", %"class.android::os::PersistableBundle"* %47, i32 0, i32 6, !dbg !18239
  store %"class.std::__1::map.41"* %81, %"class.std::__1::map.41"** %23, align 4
  %82 = load %"class.std::__1::map.41"*, %"class.std::__1::map.41"** %23, align 4
  %83 = getelementptr inbounds %"class.std::__1::map.41", %"class.std::__1::map.41"* %82, i32 0, i32 0, !dbg !18260
  store %"class.std::__1::__map_value_compare.49"* %24, %"class.std::__1::__map_value_compare.49"** %22, align 4
  call void @llvm.dbg.declare(metadata !793, metadata !18261, metadata !DIExpression()) #7, !dbg !18262
  %84 = load %"class.std::__1::__map_value_compare.49"*, %"class.std::__1::__map_value_compare.49"** %22, align 4
  %85 = bitcast %"class.std::__1::__map_value_compare.49"* %84 to %"struct.std::__1::less"*, !dbg !18263
  %86 = call %"class.std::__1::__tree.42"* @_ZNSt3__16__treeINS_12__value_typeIN7android8String16ENS_6vectorIbNS_9allocatorIbEEEEEENS_19__map_value_compareIS3_S8_NS_4lessIS3_EELb1EEENS5_IS8_EEEC2ERKSC_(%"class.std::__1::__tree.42"* %83, %"class.std::__1::__map_value_compare.49"* dereferenceable(1) %24) #7, !dbg !18260
  %87 = getelementptr inbounds %"class.android::os::PersistableBundle", %"class.android::os::PersistableBundle"* %47, i32 0, i32 7, !dbg !18239
  store %"class.std::__1::map.50"* %87, %"class.std::__1::map.50"** %19, align 4
  %88 = load %"class.std::__1::map.50"*, %"class.std::__1::map.50"** %19, align 4
  %89 = getelementptr inbounds %"class.std::__1::map.50", %"class.std::__1::map.50"* %88, i32 0, i32 0, !dbg !18264
  store %"class.std::__1::__map_value_compare.58"* %20, %"class.std::__1::__map_value_compare.58"** %18, align 4
  call void @llvm.dbg.declare(metadata !793, metadata !18265, metadata !DIExpression()) #7, !dbg !18266
  %90 = load %"class.std::__1::__map_value_compare.58"*, %"class.std::__1::__map_value_compare.58"** %18, align 4
  %91 = bitcast %"class.std::__1::__map_value_compare.58"* %90 to %"struct.std::__1::less"*, !dbg !18267
  %92 = call %"class.std::__1::__tree.51"* @_ZNSt3__16__treeINS_12__value_typeIN7android8String16ENS_6vectorIiNS_9allocatorIiEEEEEENS_19__map_value_compareIS3_S8_NS_4lessIS3_EELb1EEENS5_IS8_EEEC2ERKSC_(%"class.std::__1::__tree.51"* %89, %"class.std::__1::__map_value_compare.58"* dereferenceable(1) %20) #7, !dbg !18264
  %93 = getelementptr inbounds %"class.android::os::PersistableBundle", %"class.android::os::PersistableBundle"* %47, i32 0, i32 8, !dbg !18239
  store %"class.std::__1::map.59"* %93, %"class.std::__1::map.59"** %15, align 4
  %94 = load %"class.std::__1::map.59"*, %"class.std::__1::map.59"** %15, align 4
  %95 = getelementptr inbounds %"class.std::__1::map.59", %"class.std::__1::map.59"* %94, i32 0, i32 0, !dbg !18268
  store %"class.std::__1::__map_value_compare.67"* %16, %"class.std::__1::__map_value_compare.67"** %14, align 4
  call void @llvm.dbg.declare(metadata !793, metadata !18269, metadata !DIExpression()) #7, !dbg !18270
  %96 = load %"class.std::__1::__map_value_compare.67"*, %"class.std::__1::__map_value_compare.67"** %14, align 4
  %97 = bitcast %"class.std::__1::__map_value_compare.67"* %96 to %"struct.std::__1::less"*, !dbg !18271
  %98 = call %"class.std::__1::__tree.60"* @_ZNSt3__16__treeINS_12__value_typeIN7android8String16ENS_6vectorIxNS_9allocatorIxEEEEEENS_19__map_value_compareIS3_S8_NS_4lessIS3_EELb1EEENS5_IS8_EEEC2ERKSC_(%"class.std::__1::__tree.60"* %95, %"class.std::__1::__map_value_compare.67"* dereferenceable(1) %16) #7, !dbg !18268
  %99 = getelementptr inbounds %"class.android::os::PersistableBundle", %"class.android::os::PersistableBundle"* %47, i32 0, i32 9, !dbg !18239
  store %"class.std::__1::map.68"* %99, %"class.std::__1::map.68"** %11, align 4
  %100 = load %"class.std::__1::map.68"*, %"class.std::__1::map.68"** %11, align 4
  %101 = getelementptr inbounds %"class.std::__1::map.68", %"class.std::__1::map.68"* %100, i32 0, i32 0, !dbg !18272
  store %"class.std::__1::__map_value_compare.76"* %12, %"class.std::__1::__map_value_compare.76"** %10, align 4
  call void @llvm.dbg.declare(metadata !793, metadata !18273, metadata !DIExpression()) #7, !dbg !18274
  %102 = load %"class.std::__1::__map_value_compare.76"*, %"class.std::__1::__map_value_compare.76"** %10, align 4
  %103 = bitcast %"class.std::__1::__map_value_compare.76"* %102 to %"struct.std::__1::less"*, !dbg !18275
  %104 = call %"class.std::__1::__tree.69"* @_ZNSt3__16__treeINS_12__value_typeIN7android8String16ENS_6vectorIdNS_9allocatorIdEEEEEENS_19__map_value_compareIS3_S8_NS_4lessIS3_EELb1EEENS5_IS8_EEEC2ERKSC_(%"class.std::__1::__tree.69"* %101, %"class.std::__1::__map_value_compare.76"* dereferenceable(1) %12) #7, !dbg !18272
  %105 = getelementptr inbounds %"class.android::os::PersistableBundle", %"class.android::os::PersistableBundle"* %47, i32 0, i32 10, !dbg !18239
  store %"class.std::__1::map.77"* %105, %"class.std::__1::map.77"** %7, align 4
  %106 = load %"class.std::__1::map.77"*, %"class.std::__1::map.77"** %7, align 4
  %107 = getelementptr inbounds %"class.std::__1::map.77", %"class.std::__1::map.77"* %106, i32 0, i32 0, !dbg !18276
  store %"class.std::__1::__map_value_compare.85"* %8, %"class.std::__1::__map_value_compare.85"** %6, align 4
  call void @llvm.dbg.declare(metadata !793, metadata !18277, metadata !DIExpression()) #7, !dbg !18278
  %108 = load %"class.std::__1::__map_value_compare.85"*, %"class.std::__1::__map_value_compare.85"** %6, align 4
  %109 = bitcast %"class.std::__1::__map_value_compare.85"* %108 to %"struct.std::__1::less"*, !dbg !18279
  %110 = call %"class.std::__1::__tree.78"* @_ZNSt3__16__treeINS_12__value_typeIN7android8String16ENS_6vectorIS3_NS_9allocatorIS3_EEEEEENS_19__map_value_compareIS3_S8_NS_4lessIS3_EELb1EEENS5_IS8_EEEC2ERKSC_(%"class.std::__1::__tree.78"* %107, %"class.std::__1::__map_value_compare.85"* dereferenceable(1) %8) #7, !dbg !18276
  %111 = getelementptr inbounds %"class.android::os::PersistableBundle", %"class.android::os::PersistableBundle"* %47, i32 0, i32 11, !dbg !18239
  store %"class.std::__1::map.86"* %111, %"class.std::__1::map.86"** %3, align 4
  %112 = load %"class.std::__1::map.86"*, %"class.std::__1::map.86"** %3, align 4
  %113 = getelementptr inbounds %"class.std::__1::map.86", %"class.std::__1::map.86"* %112, i32 0, i32 0, !dbg !18280
  store %"class.std::__1::__map_value_compare.94"* %4, %"class.std::__1::__map_value_compare.94"** %2, align 4
  call void @llvm.dbg.declare(metadata !793, metadata !18281, metadata !DIExpression()) #7, !dbg !18282
  %114 = load %"class.std::__1::__map_value_compare.94"*, %"class.std::__1::__map_value_compare.94"** %2, align 4
  %115 = bitcast %"class.std::__1::__map_value_compare.94"* %114 to %"struct.std::__1::less"*, !dbg !18283
  %116 = call %"class.std::__1::__tree.87"* @_ZNSt3__16__treeINS_12__value_typeIN7android8String16ENS2_2os17PersistableBundleEEENS_19__map_value_compareIS3_S6_NS_4lessIS3_EELb1EEENS_9allocatorIS6_EEEC2ERKSA_(%"class.std::__1::__tree.87"* %113, %"class.std::__1::__map_value_compare.94"* dereferenceable(1) %4) #7, !dbg !18280
  ret %"class.android::os::PersistableBundle"* %47, !dbg !18238
}

; Function Attrs: noinline nounwind optnone sspstrong uwtable
define linkonce_odr hidden %"class.android::Parcelable"* @_ZN7android10ParcelableD2Ev(%"class.android::Parcelable"* returned) unnamed_addr #0 comdat align 2 !dbg !18284 {
  %2 = alloca %"class.android::Parcelable"*, align 4
  store %"class.android::Parcelable"* %0, %"class.android::Parcelable"** %2, align 4
  call void @llvm.dbg.declare(metadata %"class.android::Parcelable"** %2, metadata !18285, metadata !DIExpression()), !dbg !18286
  %3 = load %"class.android::Parcelable"*, %"class.android::Parcelable"** %2, align 4
  ret %"class.android::Parcelable"* %3, !dbg !18287
}

; Function Attrs: noinline nounwind optnone sspstrong uwtable
define linkonce_odr hidden void @_ZN7android10ParcelableD0Ev(%"class.android::Parcelable"*) unnamed_addr #0 comdat align 2 !dbg !18288 {
  %2 = alloca %"class.android::Parcelable"*, align 4
  store %"class.android::Parcelable"* %0, %"class.android::Parcelable"** %2, align 4
  call void @llvm.dbg.declare(metadata %"class.android::Parcelable"** %2, metadata !18289, metadata !DIExpression()), !dbg !18290
  %3 = load %"class.android::Parcelable"*, %"class.android::Parcelable"** %2, align 4
  call void @llvm.trap() #10, !dbg !18291
  unreachable, !dbg !18291
}

declare void @__cxa_pure_virtual() unnamed_addr

; Function Attrs: cold noreturn nounwind
declare void @llvm.trap() #3

declare %"class.android::VectorImpl"* @_ZN7android10VectorImplC2Ejj(%"class.android::VectorImpl"* returned, i32, i32) unnamed_addr #2

; Function Attrs: noinline nounwind optnone sspstrong uwtable
define linkonce_odr hidden %"class.android::Vector"* @_ZN7android6VectorINS_8String16EED2Ev(%"class.android::Vector"* returned) unnamed_addr #0 comdat align 2 !dbg !18292 {
  %2 = alloca %"class.android::Vector"*, align 4
  store %"class.android::Vector"* %0, %"class.android::Vector"** %2, align 4
  call void @llvm.dbg.declare(metadata %"class.android::Vector"** %2, metadata !18293, metadata !DIExpression()), !dbg !18294
  %3 = load %"class.android::Vector"*, %"class.android::Vector"** %2, align 4
  %4 = bitcast %"class.android::Vector"* %3 to i32 (...)***, !dbg !18295
  store i32 (...)** bitcast (i8** getelementptr inbounds ({ [10 x i8*] }, { [10 x i8*] }* @_ZTVN7android6VectorINS_8String16EEE, i32 0, inrange i32 0, i32 2) to i32 (...)**), i32 (...)*** %4, align 4, !dbg !18295
  %5 = bitcast %"class.android::Vector"* %3 to %"class.android::VectorImpl"*, !dbg !18296
  call void @_ZN7android10VectorImpl13finish_vectorEv(%"class.android::VectorImpl"* %5), !dbg !18296
  %6 = bitcast %"class.android::Vector"* %3 to %"class.android::VectorImpl"*, !dbg !18298
  %7 = call %"class.android::VectorImpl"* @_ZN7android10VectorImplD2Ev(%"class.android::VectorImpl"* %6) #7, !dbg !18298
  ret %"class.android::Vector"* %3, !dbg !18299
}

; Function Attrs: noinline nounwind optnone sspstrong uwtable
define linkonce_odr hidden void @_ZN7android6VectorINS_8String16EED0Ev(%"class.android::Vector"*) unnamed_addr #0 comdat align 2 !dbg !18300 {
  %2 = alloca %"class.android::Vector"*, align 4
  store %"class.android::Vector"* %0, %"class.android::Vector"** %2, align 4
  call void @llvm.dbg.declare(metadata %"class.android::Vector"** %2, metadata !18301, metadata !DIExpression()), !dbg !18302
  %3 = load %"class.android::Vector"*, %"class.android::Vector"** %2, align 4
  %4 = call %"class.android::Vector"* @_ZN7android6VectorINS_8String16EED2Ev(%"class.android::Vector"* %3) #7, !dbg !18303
  %5 = bitcast %"class.android::Vector"* %3 to i8*, !dbg !18303
  call void @_ZdlPv(i8* %5) #9, !dbg !18303
  ret void, !dbg !18304
}

; Function Attrs: noinline nounwind optnone sspstrong uwtable
define linkonce_odr void @_ZNK7android6VectorINS_8String16EE12do_constructEPvj(%"class.android::Vector"*, i8*, i32) unnamed_addr #0 comdat align 2 !dbg !18305 {
  %4 = alloca %"class.android::Vector"*, align 4
  %5 = alloca i8*, align 4
  %6 = alloca i32, align 4
  store %"class.android::Vector"* %0, %"class.android::Vector"** %4, align 4
  call void @llvm.dbg.declare(metadata %"class.android::Vector"** %4, metadata !18306, metadata !DIExpression()), !dbg !18307
  store i8* %1, i8** %5, align 4
  call void @llvm.dbg.declare(metadata i8** %5, metadata !18308, metadata !DIExpression()), !dbg !18309
  store i32 %2, i32* %6, align 4
  call void @llvm.dbg.declare(metadata i32* %6, metadata !18310, metadata !DIExpression()), !dbg !18311
  %7 = load %"class.android::Vector"*, %"class.android::Vector"** %4, align 4
  %8 = load i8*, i8** %5, align 4, !dbg !18312
  %9 = bitcast i8* %8 to %"class.android::String16"*, !dbg !18313
  %10 = load i32, i32* %6, align 4, !dbg !18314
  call void @_ZN7android14construct_typeINS_8String16EEEvPT_j(%"class.android::String16"* %9, i32 %10), !dbg !18315
  ret void, !dbg !18316
}

; Function Attrs: noinline nounwind optnone sspstrong uwtable
define linkonce_odr void @_ZNK7android6VectorINS_8String16EE10do_destroyEPvj(%"class.android::Vector"*, i8*, i32) unnamed_addr #0 comdat align 2 !dbg !18317 {
  %4 = alloca %"class.android::Vector"*, align 4
  %5 = alloca i8*, align 4
  %6 = alloca i32, align 4
  store %"class.android::Vector"* %0, %"class.android::Vector"** %4, align 4
  call void @llvm.dbg.declare(metadata %"class.android::Vector"** %4, metadata !18318, metadata !DIExpression()), !dbg !18319
  store i8* %1, i8** %5, align 4
  call void @llvm.dbg.declare(metadata i8** %5, metadata !18320, metadata !DIExpression()), !dbg !18321
  store i32 %2, i32* %6, align 4
  call void @llvm.dbg.declare(metadata i32* %6, metadata !18322, metadata !DIExpression()), !dbg !18323
  %7 = load %"class.android::Vector"*, %"class.android::Vector"** %4, align 4
  %8 = load i8*, i8** %5, align 4, !dbg !18324
  %9 = bitcast i8* %8 to %"class.android::String16"*, !dbg !18325
  %10 = load i32, i32* %6, align 4, !dbg !18326
  call void @_ZN7android12destroy_typeINS_8String16EEEvPT_j(%"class.android::String16"* %9, i32 %10), !dbg !18327
  ret void, !dbg !18328
}

; Function Attrs: noinline nounwind optnone sspstrong uwtable
define linkonce_odr void @_ZNK7android6VectorINS_8String16EE7do_copyEPvPKvj(%"class.android::Vector"*, i8*, i8*, i32) unnamed_addr #0 comdat align 2 !dbg !18329 {
  %5 = alloca %"class.android::Vector"*, align 4
  %6 = alloca i8*, align 4
  %7 = alloca i8*, align 4
  %8 = alloca i32, align 4
  store %"class.android::Vector"* %0, %"class.android::Vector"** %5, align 4
  call void @llvm.dbg.declare(metadata %"class.android::Vector"** %5, metadata !18330, metadata !DIExpression()), !dbg !18331
  store i8* %1, i8** %6, align 4
  call void @llvm.dbg.declare(metadata i8** %6, metadata !18332, metadata !DIExpression()), !dbg !18333
  store i8* %2, i8** %7, align 4
  call void @llvm.dbg.declare(metadata i8** %7, metadata !18334, metadata !DIExpression()), !dbg !18335
  store i32 %3, i32* %8, align 4
  call void @llvm.dbg.declare(metadata i32* %8, metadata !18336, metadata !DIExpression()), !dbg !18337
  %9 = load %"class.android::Vector"*, %"class.android::Vector"** %5, align 4
  %10 = load i8*, i8** %6, align 4, !dbg !18338
  %11 = bitcast i8* %10 to %"class.android::String16"*, !dbg !18339
  %12 = load i8*, i8** %7, align 4, !dbg !18340
  %13 = bitcast i8* %12 to %"class.android::String16"*, !dbg !18341
  %14 = load i32, i32* %8, align 4, !dbg !18342
  call void @_ZN7android9copy_typeINS_8String16EEENSt3__19enable_ifIXntsr6traitsIT_EE16has_trivial_copyEvE4typeEPS4_PKS4_j(%"class.android::String16"* %11, %"class.android::String16"* %13, i32 %14), !dbg !18343
  ret void, !dbg !18344
}

; Function Attrs: noinline nounwind optnone sspstrong uwtable
define linkonce_odr void @_ZNK7android6VectorINS_8String16EE8do_splatEPvPKvj(%"class.android::Vector"*, i8*, i8*, i32) unnamed_addr #0 comdat align 2 !dbg !18345 {
  %5 = alloca %"class.android::Vector"*, align 4
  %6 = alloca i8*, align 4
  %7 = alloca i8*, align 4
  %8 = alloca i32, align 4
  store %"class.android::Vector"* %0, %"class.android::Vector"** %5, align 4
  call void @llvm.dbg.declare(metadata %"class.android::Vector"** %5, metadata !18346, metadata !DIExpression()), !dbg !18347
  store i8* %1, i8** %6, align 4
  call void @llvm.dbg.declare(metadata i8** %6, metadata !18348, metadata !DIExpression()), !dbg !18349
  store i8* %2, i8** %7, align 4
  call void @llvm.dbg.declare(metadata i8** %7, metadata !18350, metadata !DIExpression()), !dbg !18351
  store i32 %3, i32* %8, align 4
  call void @llvm.dbg.declare(metadata i32* %8, metadata !18352, metadata !DIExpression()), !dbg !18353
  %9 = load %"class.android::Vector"*, %"class.android::Vector"** %5, align 4
  %10 = load i8*, i8** %6, align 4, !dbg !18354
  %11 = bitcast i8* %10 to %"class.android::String16"*, !dbg !18355
  %12 = load i8*, i8** %7, align 4, !dbg !18356
  %13 = bitcast i8* %12 to %"class.android::String16"*, !dbg !18357
  %14 = load i32, i32* %8, align 4, !dbg !18358
  call void @_ZN7android10splat_typeINS_8String16EEEvPT_PKS2_j(%"class.android::String16"* %11, %"class.android::String16"* %13, i32 %14), !dbg !18359
  ret void, !dbg !18360
}

; Function Attrs: noinline nounwind optnone sspstrong uwtable
define linkonce_odr void @_ZNK7android6VectorINS_8String16EE15do_move_forwardEPvPKvj(%"class.android::Vector"*, i8*, i8*, i32) unnamed_addr #0 comdat align 2 !dbg !18361 {
  %5 = alloca %"class.android::Vector"*, align 4
  %6 = alloca i8*, align 4
  %7 = alloca i8*, align 4
  %8 = alloca i32, align 4
  store %"class.android::Vector"* %0, %"class.android::Vector"** %5, align 4
  call void @llvm.dbg.declare(metadata %"class.android::Vector"** %5, metadata !18362, metadata !DIExpression()), !dbg !18363
  store i8* %1, i8** %6, align 4
  call void @llvm.dbg.declare(metadata i8** %6, metadata !18364, metadata !DIExpression()), !dbg !18365
  store i8* %2, i8** %7, align 4
  call void @llvm.dbg.declare(metadata i8** %7, metadata !18366, metadata !DIExpression()), !dbg !18367
  store i32 %3, i32* %8, align 4
  call void @llvm.dbg.declare(metadata i32* %8, metadata !18368, metadata !DIExpression()), !dbg !18369
  %9 = load %"class.android::Vector"*, %"class.android::Vector"** %5, align 4
  %10 = load i8*, i8** %6, align 4, !dbg !18370
  %11 = bitcast i8* %10 to %"class.android::String16"*, !dbg !18371
  %12 = load i8*, i8** %7, align 4, !dbg !18372
  %13 = bitcast i8* %12 to %"class.android::String16"*, !dbg !18373
  %14 = load i32, i32* %8, align 4, !dbg !18374
  call void @_ZN7android17move_forward_typeINS_8String16EEENSt3__19enable_ifIXsr16use_trivial_moveIT_EE5valueEvE4typeEPS4_PKS4_j(%"class.android::String16"* %11, %"class.android::String16"* %13, i32 %14), !dbg !18375
  ret void, !dbg !18376
}

; Function Attrs: noinline nounwind optnone sspstrong uwtable
define linkonce_odr void @_ZNK7android6VectorINS_8String16EE16do_move_backwardEPvPKvj(%"class.android::Vector"*, i8*, i8*, i32) unnamed_addr #0 comdat align 2 !dbg !18377 {
  %5 = alloca %"class.android::Vector"*, align 4
  %6 = alloca i8*, align 4
  %7 = alloca i8*, align 4
  %8 = alloca i32, align 4
  store %"class.android::Vector"* %0, %"class.android::Vector"** %5, align 4
  call void @llvm.dbg.declare(metadata %"class.android::Vector"** %5, metadata !18378, metadata !DIExpression()), !dbg !18379
  store i8* %1, i8** %6, align 4
  call void @llvm.dbg.declare(metadata i8** %6, metadata !18380, metadata !DIExpression()), !dbg !18381
  store i8* %2, i8** %7, align 4
  call void @llvm.dbg.declare(metadata i8** %7, metadata !18382, metadata !DIExpression()), !dbg !18383
  store i32 %3, i32* %8, align 4
  call void @llvm.dbg.declare(metadata i32* %8, metadata !18384, metadata !DIExpression()), !dbg !18385
  %9 = load %"class.android::Vector"*, %"class.android::Vector"** %5, align 4
  %10 = load i8*, i8** %6, align 4, !dbg !18386
  %11 = bitcast i8* %10 to %"class.android::String16"*, !dbg !18387
  %12 = load i8*, i8** %7, align 4, !dbg !18388
  %13 = bitcast i8* %12 to %"class.android::String16"*, !dbg !18389
  %14 = load i32, i32* %8, align 4, !dbg !18390
  call void @_ZN7android18move_backward_typeINS_8String16EEENSt3__19enable_ifIXsr16use_trivial_moveIT_EE5valueEvE4typeEPS4_PKS4_j(%"class.android::String16"* %11, %"class.android::String16"* %13, i32 %14), !dbg !18391
  ret void, !dbg !18392
}

declare void @_ZN7android10VectorImpl13finish_vectorEv(%"class.android::VectorImpl"*) #2

; Function Attrs: nounwind
declare %"class.android::VectorImpl"* @_ZN7android10VectorImplD2Ev(%"class.android::VectorImpl"* returned) unnamed_addr #4

; Function Attrs: nobuiltin nounwind
declare void @_ZdlPv(i8*) #5

; Function Attrs: noinline nounwind optnone sspstrong uwtable
define linkonce_odr hidden void @_ZN7android14construct_typeINS_8String16EEEvPT_j(%"class.android::String16"*, i32) #0 comdat !dbg !18393 {
  %3 = alloca %"class.android::String16"*, align 4
  %4 = alloca i32, align 4
  store %"class.android::String16"* %0, %"class.android::String16"** %3, align 4
  call void @llvm.dbg.declare(metadata %"class.android::String16"** %3, metadata !18397, metadata !DIExpression()), !dbg !18398
  store i32 %1, i32* %4, align 4
  call void @llvm.dbg.declare(metadata i32* %4, metadata !18399, metadata !DIExpression()), !dbg !18400
  br label %5, !dbg !18401

5:                                                ; preds = %8, %2
  %6 = load i32, i32* %4, align 4, !dbg !18404
  %7 = icmp ugt i32 %6, 0, !dbg !18405
  br i1 %7, label %8, label %16, !dbg !18401

8:                                                ; preds = %5
  %9 = load i32, i32* %4, align 4, !dbg !18406
  %10 = add i32 %9, -1, !dbg !18406
  store i32 %10, i32* %4, align 4, !dbg !18406
  %11 = load %"class.android::String16"*, %"class.android::String16"** %3, align 4, !dbg !18408
  %12 = getelementptr inbounds %"class.android::String16", %"class.android::String16"* %11, i32 1, !dbg !18408
  store %"class.android::String16"* %12, %"class.android::String16"** %3, align 4, !dbg !18408
  %13 = bitcast %"class.android::String16"* %11 to i8*, !dbg !18409
  %14 = bitcast i8* %13 to %"class.android::String16"*, !dbg !18409
  %15 = call %"class.android::String16"* @_ZN7android8String16C1Ev(%"class.android::String16"* %14), !dbg !18410
  br label %5, !dbg !18401, !llvm.loop !18411

16:                                               ; preds = %5
  ret void, !dbg !18413
}

declare %"class.android::String16"* @_ZN7android8String16C1Ev(%"class.android::String16"* returned) unnamed_addr #2

; Function Attrs: noinline nounwind optnone sspstrong uwtable
define linkonce_odr hidden void @_ZN7android12destroy_typeINS_8String16EEEvPT_j(%"class.android::String16"*, i32) #0 comdat !dbg !18414 {
  %3 = alloca %"class.android::String16"*, align 4
  %4 = alloca i32, align 4
  store %"class.android::String16"* %0, %"class.android::String16"** %3, align 4
  call void @llvm.dbg.declare(metadata %"class.android::String16"** %3, metadata !18415, metadata !DIExpression()), !dbg !18416
  store i32 %1, i32* %4, align 4
  call void @llvm.dbg.declare(metadata i32* %4, metadata !18417, metadata !DIExpression()), !dbg !18418
  br label %5, !dbg !18419

5:                                                ; preds = %8, %2
  %6 = load i32, i32* %4, align 4, !dbg !18422
  %7 = icmp ugt i32 %6, 0, !dbg !18423
  br i1 %7, label %8, label %15, !dbg !18419

8:                                                ; preds = %5
  %9 = load i32, i32* %4, align 4, !dbg !18424
  %10 = add i32 %9, -1, !dbg !18424
  store i32 %10, i32* %4, align 4, !dbg !18424
  %11 = load %"class.android::String16"*, %"class.android::String16"** %3, align 4, !dbg !18426
  %12 = call %"class.android::String16"* @_ZN7android8String16D1Ev(%"class.android::String16"* %11) #7, !dbg !18427
  %13 = load %"class.android::String16"*, %"class.android::String16"** %3, align 4, !dbg !18428
  %14 = getelementptr inbounds %"class.android::String16", %"class.android::String16"* %13, i32 1, !dbg !18428
  store %"class.android::String16"* %14, %"class.android::String16"** %3, align 4, !dbg !18428
  br label %5, !dbg !18419, !llvm.loop !18429

15:                                               ; preds = %5
  ret void, !dbg !18431
}

; Function Attrs: nounwind
declare %"class.android::String16"* @_ZN7android8String16D1Ev(%"class.android::String16"* returned) unnamed_addr #4

; Function Attrs: noinline nounwind optnone sspstrong uwtable
define linkonce_odr hidden void @_ZN7android9copy_typeINS_8String16EEENSt3__19enable_ifIXntsr6traitsIT_EE16has_trivial_copyEvE4typeEPS4_PKS4_j(%"class.android::String16"*, %"class.android::String16"*, i32) #0 comdat !dbg !18432 {
  %4 = alloca %"class.android::String16"*, align 4
  %5 = alloca %"class.android::String16"*, align 4
  %6 = alloca i32, align 4
  store %"class.android::String16"* %0, %"class.android::String16"** %4, align 4
  call void @llvm.dbg.declare(metadata %"class.android::String16"** %4, metadata !18438, metadata !DIExpression()), !dbg !18439
  store %"class.android::String16"* %1, %"class.android::String16"** %5, align 4
  call void @llvm.dbg.declare(metadata %"class.android::String16"** %5, metadata !18440, metadata !DIExpression()), !dbg !18441
  store i32 %2, i32* %6, align 4
  call void @llvm.dbg.declare(metadata i32* %6, metadata !18442, metadata !DIExpression()), !dbg !18443
  br label %7, !dbg !18444

7:                                                ; preds = %10, %3
  %8 = load i32, i32* %6, align 4, !dbg !18445
  %9 = icmp ugt i32 %8, 0, !dbg !18446
  br i1 %9, label %10, label %22, !dbg !18444

10:                                               ; preds = %7
  %11 = load i32, i32* %6, align 4, !dbg !18447
  %12 = add i32 %11, -1, !dbg !18447
  store i32 %12, i32* %6, align 4, !dbg !18447
  %13 = load %"class.android::String16"*, %"class.android::String16"** %4, align 4, !dbg !18449
  %14 = bitcast %"class.android::String16"* %13 to i8*, !dbg !18450
  %15 = bitcast i8* %14 to %"class.android::String16"*, !dbg !18450
  %16 = load %"class.android::String16"*, %"class.android::String16"** %5, align 4, !dbg !18451
  %17 = call %"class.android::String16"* @_ZN7android8String16C1ERKS0_(%"class.android::String16"* %15, %"class.android::String16"* dereferenceable(4) %16), !dbg !18452
  %18 = load %"class.android::String16"*, %"class.android::String16"** %4, align 4, !dbg !18453
  %19 = getelementptr inbounds %"class.android::String16", %"class.android::String16"* %18, i32 1, !dbg !18453
  store %"class.android::String16"* %19, %"class.android::String16"** %4, align 4, !dbg !18453
  %20 = load %"class.android::String16"*, %"class.android::String16"** %5, align 4, !dbg !18454
  %21 = getelementptr inbounds %"class.android::String16", %"class.android::String16"* %20, i32 1, !dbg !18454
  store %"class.android::String16"* %21, %"class.android::String16"** %5, align 4, !dbg !18454
  br label %7, !dbg !18444, !llvm.loop !18455

22:                                               ; preds = %7
  ret void, !dbg !18457
}

declare %"class.android::String16"* @_ZN7android8String16C1ERKS0_(%"class.android::String16"* returned, %"class.android::String16"* dereferenceable(4)) unnamed_addr #2

; Function Attrs: noinline nounwind optnone sspstrong uwtable
define linkonce_odr hidden void @_ZN7android10splat_typeINS_8String16EEEvPT_PKS2_j(%"class.android::String16"*, %"class.android::String16"*, i32) #0 comdat !dbg !18458 {
  %4 = alloca %"class.android::String16"*, align 4
  %5 = alloca %"class.android::String16"*, align 4
  %6 = alloca i32, align 4
  store %"class.android::String16"* %0, %"class.android::String16"** %4, align 4
  call void @llvm.dbg.declare(metadata %"class.android::String16"** %4, metadata !18461, metadata !DIExpression()), !dbg !18462
  store %"class.android::String16"* %1, %"class.android::String16"** %5, align 4
  call void @llvm.dbg.declare(metadata %"class.android::String16"** %5, metadata !18463, metadata !DIExpression()), !dbg !18464
  store i32 %2, i32* %6, align 4
  call void @llvm.dbg.declare(metadata i32* %6, metadata !18465, metadata !DIExpression()), !dbg !18466
  br label %7, !dbg !18467

7:                                                ; preds = %10, %3
  %8 = load i32, i32* %6, align 4, !dbg !18470
  %9 = icmp ugt i32 %8, 0, !dbg !18471
  br i1 %9, label %10, label %20, !dbg !18467

10:                                               ; preds = %7
  %11 = load i32, i32* %6, align 4, !dbg !18472
  %12 = add i32 %11, -1, !dbg !18472
  store i32 %12, i32* %6, align 4, !dbg !18472
  %13 = load %"class.android::String16"*, %"class.android::String16"** %4, align 4, !dbg !18474
  %14 = bitcast %"class.android::String16"* %13 to i8*, !dbg !18475
  %15 = bitcast i8* %14 to %"class.android::String16"*, !dbg !18475
  %16 = load %"class.android::String16"*, %"class.android::String16"** %5, align 4, !dbg !18476
  %17 = call %"class.android::String16"* @_ZN7android8String16C1ERKS0_(%"class.android::String16"* %15, %"class.android::String16"* dereferenceable(4) %16), !dbg !18477
  %18 = load %"class.android::String16"*, %"class.android::String16"** %4, align 4, !dbg !18478
  %19 = getelementptr inbounds %"class.android::String16", %"class.android::String16"* %18, i32 1, !dbg !18478
  store %"class.android::String16"* %19, %"class.android::String16"** %4, align 4, !dbg !18478
  br label %7, !dbg !18467, !llvm.loop !18479

20:                                               ; preds = %7
  ret void, !dbg !18481
}

; Function Attrs: noinline nounwind optnone sspstrong uwtable
define linkonce_odr hidden void @_ZN7android17move_forward_typeINS_8String16EEENSt3__19enable_ifIXsr16use_trivial_moveIT_EE5valueEvE4typeEPS4_PKS4_j(%"class.android::String16"*, %"class.android::String16"*, i32) #0 comdat !dbg !18482 {
  %4 = alloca i8*, align 4
  call void @llvm.dbg.declare(metadata i8** %4, metadata !18483, metadata !DIExpression()), !dbg !18484
  %5 = alloca i32, align 4
  call void @llvm.dbg.declare(metadata i32* %5, metadata !18486, metadata !DIExpression()), !dbg !18487
  %6 = alloca i8*, align 4
  call void @llvm.dbg.declare(metadata i8** %6, metadata !18488, metadata !DIExpression()), !dbg !18489
  %7 = alloca i32, align 4
  call void @llvm.dbg.declare(metadata i32* %7, metadata !18490, metadata !DIExpression()), !dbg !18491
  %8 = alloca %"class.android::String16"*, align 4
  %9 = alloca %"class.android::String16"*, align 4
  %10 = alloca i32, align 4
  store %"class.android::String16"* %0, %"class.android::String16"** %8, align 4
  call void @llvm.dbg.declare(metadata %"class.android::String16"** %8, metadata !18492, metadata !DIExpression()), !dbg !18493
  store %"class.android::String16"* %1, %"class.android::String16"** %9, align 4
  call void @llvm.dbg.declare(metadata %"class.android::String16"** %9, metadata !18494, metadata !DIExpression()), !dbg !18495
  store i32 %2, i32* %10, align 4
  call void @llvm.dbg.declare(metadata i32* %10, metadata !18496, metadata !DIExpression()), !dbg !18497
  %11 = load %"class.android::String16"*, %"class.android::String16"** %8, align 4, !dbg !18498
  %12 = bitcast %"class.android::String16"* %11 to i8*, !dbg !18498
  %13 = call i32 @llvm.objectsize.i32.p0i8(i8* %12, i1 false, i1 true, i1 false), !dbg !18499
  %14 = load %"class.android::String16"*, %"class.android::String16"** %9, align 4, !dbg !18500
  %15 = bitcast %"class.android::String16"* %14 to i8*, !dbg !18500
  %16 = load i32, i32* %10, align 4, !dbg !18501
  %17 = mul i32 %16, 4, !dbg !18502
  store i8* %12, i8** %4, align 4
  store i32 %13, i32* %5, align 4
  store i8* %15, i8** %6, align 4
  store i32 %17, i32* %7, align 4
  %18 = load i8*, i8** %4, align 4, !dbg !18503
  %19 = load i8*, i8** %6, align 4, !dbg !18504
  %20 = load i32, i32* %7, align 4, !dbg !18505
  %21 = load i32, i32* %5, align 4, !dbg !18506
  %22 = call i8* @__memmove_chk(i8* %18, i8* %19, i32 %20, i32 %21) #7, !dbg !18507
  ret void, !dbg !18508
}

; Function Attrs: nounwind
declare i8* @__memmove_chk(i8*, i8*, i32, i32) #4

; Function Attrs: noinline nounwind optnone sspstrong uwtable
define linkonce_odr hidden void @_ZN7android18move_backward_typeINS_8String16EEENSt3__19enable_ifIXsr16use_trivial_moveIT_EE5valueEvE4typeEPS4_PKS4_j(%"class.android::String16"*, %"class.android::String16"*, i32) #0 comdat !dbg !18509 {
  %4 = alloca i8*, align 4
  call void @llvm.dbg.declare(metadata i8** %4, metadata !18483, metadata !DIExpression()), !dbg !18510
  %5 = alloca i32, align 4
  call void @llvm.dbg.declare(metadata i32* %5, metadata !18486, metadata !DIExpression()), !dbg !18512
  %6 = alloca i8*, align 4
  call void @llvm.dbg.declare(metadata i8** %6, metadata !18488, metadata !DIExpression()), !dbg !18513
  %7 = alloca i32, align 4
  call void @llvm.dbg.declare(metadata i32* %7, metadata !18490, metadata !DIExpression()), !dbg !18514
  %8 = alloca %"class.android::String16"*, align 4
  %9 = alloca %"class.android::String16"*, align 4
  %10 = alloca i32, align 4
  store %"class.android::String16"* %0, %"class.android::String16"** %8, align 4
  call void @llvm.dbg.declare(metadata %"class.android::String16"** %8, metadata !18515, metadata !DIExpression()), !dbg !18516
  store %"class.android::String16"* %1, %"class.android::String16"** %9, align 4
  call void @llvm.dbg.declare(metadata %"class.android::String16"** %9, metadata !18517, metadata !DIExpression()), !dbg !18518
  store i32 %2, i32* %10, align 4
  call void @llvm.dbg.declare(metadata i32* %10, metadata !18519, metadata !DIExpression()), !dbg !18520
  %11 = load %"class.android::String16"*, %"class.android::String16"** %8, align 4, !dbg !18521
  %12 = bitcast %"class.android::String16"* %11 to i8*, !dbg !18521
  %13 = call i32 @llvm.objectsize.i32.p0i8(i8* %12, i1 false, i1 true, i1 false), !dbg !18522
  %14 = load %"class.android::String16"*, %"class.android::String16"** %9, align 4, !dbg !18523
  %15 = bitcast %"class.android::String16"* %14 to i8*, !dbg !18523
  %16 = load i32, i32* %10, align 4, !dbg !18524
  %17 = mul i32 %16, 4, !dbg !18525
  store i8* %12, i8** %4, align 4
  store i32 %13, i32* %5, align 4
  store i8* %15, i8** %6, align 4
  store i32 %17, i32* %7, align 4
  %18 = load i8*, i8** %4, align 4, !dbg !18526
  %19 = load i8*, i8** %6, align 4, !dbg !18527
  %20 = load i32, i32* %7, align 4, !dbg !18528
  %21 = load i32, i32* %5, align 4, !dbg !18529
  %22 = call i8* @__memmove_chk(i8* %18, i8* %19, i32 %20, i32 %21) #7, !dbg !18530
  ret void, !dbg !18531
}

; Function Attrs: noinline nounwind optnone sspstrong uwtable
define linkonce_odr %"class.std::__1::__tree"* @_ZNSt3__16__treeINS_12__value_typeIN7android8String16EbEENS_19__map_value_compareIS3_S4_NS_4lessIS3_EELb1EEENS_9allocatorIS4_EEEC2ERKS8_(%"class.std::__1::__tree"* returned, %"class.std::__1::__map_value_compare"* dereferenceable(1)) unnamed_addr #0 comdat align 2 !dbg !18532 {
  %3 = alloca i32*, align 4
  call void @llvm.dbg.declare(metadata i32** %3, metadata !18533, metadata !DIExpression()), !dbg !18541
  %4 = alloca %"struct.std::__1::__compressed_pair_elem.3"*, align 4
  call void @llvm.dbg.declare(metadata %"struct.std::__1::__compressed_pair_elem.3"** %4, metadata !18559, metadata !DIExpression()), !dbg !18561
  %5 = alloca i32*, align 4
  call void @llvm.dbg.declare(metadata i32** %5, metadata !18562, metadata !DIExpression()), !dbg !18563
  %6 = alloca %"class.std::__1::__map_value_compare"*, align 4
  call void @llvm.dbg.declare(metadata %"class.std::__1::__map_value_compare"** %6, metadata !18564, metadata !DIExpression()), !dbg !18573
  %7 = alloca %"class.std::__1::__map_value_compare"*, align 4
  call void @llvm.dbg.declare(metadata %"class.std::__1::__map_value_compare"** %7, metadata !18564, metadata !DIExpression()), !dbg !18575
  %8 = alloca %"struct.std::__1::__compressed_pair_elem.4"*, align 4
  call void @llvm.dbg.declare(metadata %"struct.std::__1::__compressed_pair_elem.4"** %8, metadata !18584, metadata !DIExpression()), !dbg !18586
  %9 = alloca %"class.std::__1::__map_value_compare"*, align 4
  call void @llvm.dbg.declare(metadata %"class.std::__1::__map_value_compare"** %9, metadata !18587, metadata !DIExpression()), !dbg !18588
  %10 = alloca i32*, align 4
  call void @llvm.dbg.declare(metadata i32** %10, metadata !18533, metadata !DIExpression()), !dbg !18589
  %11 = alloca %"class.std::__1::__compressed_pair.2"*, align 4
  call void @llvm.dbg.declare(metadata %"class.std::__1::__compressed_pair.2"** %11, metadata !18591, metadata !DIExpression()), !dbg !18593
  %12 = alloca i32*, align 4
  call void @llvm.dbg.declare(metadata i32** %12, metadata !18594, metadata !DIExpression()), !dbg !18595
  %13 = alloca %"class.std::__1::__map_value_compare"*, align 4
  call void @llvm.dbg.declare(metadata %"class.std::__1::__map_value_compare"** %13, metadata !18596, metadata !DIExpression()), !dbg !18597
  %14 = alloca %"class.std::__1::__tree_end_node"*, align 4
  call void @llvm.dbg.declare(metadata %"class.std::__1::__tree_end_node"** %14, metadata !18598, metadata !DIExpression()), !dbg !18603
  %15 = alloca %"class.std::__1::__tree_end_node"*, align 4
  call void @llvm.dbg.declare(metadata %"class.std::__1::__tree_end_node"** %15, metadata !18625, metadata !DIExpression()), !dbg !18626
  %16 = alloca %"struct.std::__1::__compressed_pair_elem"*, align 4
  call void @llvm.dbg.declare(metadata %"struct.std::__1::__compressed_pair_elem"** %16, metadata !18627, metadata !DIExpression()), !dbg !18630
  %17 = alloca %"class.std::__1::__compressed_pair"*, align 4
  call void @llvm.dbg.declare(metadata %"class.std::__1::__compressed_pair"** %17, metadata !18634, metadata !DIExpression()), !dbg !18636
  %18 = alloca %"class.std::__1::__tree"*, align 4
  call void @llvm.dbg.declare(metadata %"class.std::__1::__tree"** %18, metadata !18637, metadata !DIExpression()), !dbg !18639
  %19 = alloca %"class.std::__1::__tree"*, align 4
  call void @llvm.dbg.declare(metadata %"class.std::__1::__tree"** %19, metadata !18640, metadata !DIExpression()), !dbg !18642
  %20 = alloca %"class.std::__1::allocator"*, align 4
  call void @llvm.dbg.declare(metadata %"class.std::__1::allocator"** %20, metadata !18644, metadata !DIExpression()), !dbg !18647
  %21 = alloca %"struct.std::__1::__compressed_pair_elem.1"*, align 4
  call void @llvm.dbg.declare(metadata %"struct.std::__1::__compressed_pair_elem.1"** %21, metadata !18658, metadata !DIExpression()), !dbg !18660
  %22 = alloca %"class.std::__1::__tree_end_node"*, align 4
  call void @llvm.dbg.declare(metadata %"class.std::__1::__tree_end_node"** %22, metadata !18661, metadata !DIExpression()), !dbg !18663
  %23 = alloca %"struct.std::__1::__compressed_pair_elem"*, align 4
  call void @llvm.dbg.declare(metadata %"struct.std::__1::__compressed_pair_elem"** %23, metadata !18667, metadata !DIExpression()), !dbg !18668
  %24 = alloca %"class.std::__1::__compressed_pair"*, align 4
  call void @llvm.dbg.declare(metadata %"class.std::__1::__compressed_pair"** %24, metadata !18669, metadata !DIExpression()), !dbg !18670
  %25 = alloca %"class.std::__1::__tree"*, align 4
  %26 = alloca %"class.std::__1::__map_value_compare"*, align 4
  %27 = alloca i32, align 4
  store %"class.std::__1::__tree"* %0, %"class.std::__1::__tree"** %25, align 4
  call void @llvm.dbg.declare(metadata %"class.std::__1::__tree"** %25, metadata !18671, metadata !DIExpression()), !dbg !18672
  store %"class.std::__1::__map_value_compare"* %1, %"class.std::__1::__map_value_compare"** %26, align 4
  call void @llvm.dbg.declare(metadata %"class.std::__1::__map_value_compare"** %26, metadata !18673, metadata !DIExpression()), !dbg !18674
  %28 = load %"class.std::__1::__tree"*, %"class.std::__1::__tree"** %25, align 4
  %29 = getelementptr inbounds %"class.std::__1::__tree", %"class.std::__1::__tree"* %28, i32 0, i32 1, !dbg !18675
  store %"class.std::__1::__compressed_pair"* %29, %"class.std::__1::__compressed_pair"** %24, align 4
  %30 = load %"class.std::__1::__compressed_pair"*, %"class.std::__1::__compressed_pair"** %24, align 4
  %31 = bitcast %"class.std::__1::__compressed_pair"* %30 to %"struct.std::__1::__compressed_pair_elem"*, !dbg !18676
  store %"struct.std::__1::__compressed_pair_elem"* %31, %"struct.std::__1::__compressed_pair_elem"** %23, align 4
  %32 = load %"struct.std::__1::__compressed_pair_elem"*, %"struct.std::__1::__compressed_pair_elem"** %23, align 4
  %33 = getelementptr inbounds %"struct.std::__1::__compressed_pair_elem", %"struct.std::__1::__compressed_pair_elem"* %32, i32 0, i32 0, !dbg !18677
  store %"class.std::__1::__tree_end_node"* %33, %"class.std::__1::__tree_end_node"** %22, align 4
  %34 = load %"class.std::__1::__tree_end_node"*, %"class.std::__1::__tree_end_node"** %22, align 4
  %35 = getelementptr inbounds %"class.std::__1::__tree_end_node", %"class.std::__1::__tree_end_node"* %34, i32 0, i32 0, !dbg !18678
  store %"class.std::__1::__tree_node_base"* null, %"class.std::__1::__tree_node_base"** %35, align 4, !dbg !18678
  %36 = bitcast %"class.std::__1::__compressed_pair"* %30 to %"struct.std::__1::__compressed_pair_elem.1"*, !dbg !18676
  store %"struct.std::__1::__compressed_pair_elem.1"* %36, %"struct.std::__1::__compressed_pair_elem.1"** %21, align 4
  %37 = load %"struct.std::__1::__compressed_pair_elem.1"*, %"struct.std::__1::__compressed_pair_elem.1"** %21, align 4
  %38 = bitcast %"struct.std::__1::__compressed_pair_elem.1"* %37 to %"class.std::__1::allocator"*, !dbg !18679
  store %"class.std::__1::allocator"* %38, %"class.std::__1::allocator"** %20, align 4
  %39 = load %"class.std::__1::allocator"*, %"class.std::__1::allocator"** %20, align 4
  %40 = getelementptr inbounds %"class.std::__1::__tree", %"class.std::__1::__tree"* %28, i32 0, i32 2, !dbg !18680
  store i32 0, i32* %27, align 4, !dbg !18681
  %41 = load %"class.std::__1::__map_value_compare"*, %"class.std::__1::__map_value_compare"** %26, align 4, !dbg !18682
  store %"class.std::__1::__compressed_pair.2"* %40, %"class.std::__1::__compressed_pair.2"** %11, align 4
  store i32* %27, i32** %12, align 4
  store %"class.std::__1::__map_value_compare"* %41, %"class.std::__1::__map_value_compare"** %13, align 4
  %42 = load %"class.std::__1::__compressed_pair.2"*, %"class.std::__1::__compressed_pair.2"** %11, align 4
  %43 = bitcast %"class.std::__1::__compressed_pair.2"* %42 to %"struct.std::__1::__compressed_pair_elem.3"*, !dbg !18683
  %44 = load i32*, i32** %12, align 4, !dbg !18684
  store i32* %44, i32** %10, align 4
  %45 = load i32*, i32** %10, align 4, !dbg !18685
  store %"struct.std::__1::__compressed_pair_elem.3"* %43, %"struct.std::__1::__compressed_pair_elem.3"** %4, align 4
  store i32* %45, i32** %5, align 4
  %46 = load %"struct.std::__1::__compressed_pair_elem.3"*, %"struct.std::__1::__compressed_pair_elem.3"** %4, align 4
  %47 = getelementptr inbounds %"struct.std::__1::__compressed_pair_elem.3", %"struct.std::__1::__compressed_pair_elem.3"* %46, i32 0, i32 0, !dbg !18686
  %48 = load i32*, i32** %5, align 4, !dbg !18687
  store i32* %48, i32** %3, align 4
  %49 = load i32*, i32** %3, align 4, !dbg !18688
  %50 = load i32, i32* %49, align 4, !dbg !18689
  store i32 %50, i32* %47, align 4, !dbg !18686
  %51 = bitcast %"class.std::__1::__compressed_pair.2"* %42 to %"struct.std::__1::__compressed_pair_elem.4"*, !dbg !18683
  %52 = load %"class.std::__1::__map_value_compare"*, %"class.std::__1::__map_value_compare"** %13, align 4, !dbg !18690
  store %"class.std::__1::__map_value_compare"* %52, %"class.std::__1::__map_value_compare"** %6, align 4
  %53 = load %"class.std::__1::__map_value_compare"*, %"class.std::__1::__map_value_compare"** %6, align 4, !dbg !18691
  store %"struct.std::__1::__compressed_pair_elem.4"* %51, %"struct.std::__1::__compressed_pair_elem.4"** %8, align 4
  store %"class.std::__1::__map_value_compare"* %53, %"class.std::__1::__map_value_compare"** %9, align 4
  %54 = load %"struct.std::__1::__compressed_pair_elem.4"*, %"struct.std::__1::__compressed_pair_elem.4"** %8, align 4
  %55 = bitcast %"struct.std::__1::__compressed_pair_elem.4"* %54 to %"class.std::__1::__map_value_compare"*, !dbg !18692
  %56 = load %"class.std::__1::__map_value_compare"*, %"class.std::__1::__map_value_compare"** %9, align 4, !dbg !18693
  store %"class.std::__1::__map_value_compare"* %56, %"class.std::__1::__map_value_compare"** %7, align 4
  %57 = load %"class.std::__1::__map_value_compare"*, %"class.std::__1::__map_value_compare"** %7, align 4, !dbg !18694
  store %"class.std::__1::__tree"* %28, %"class.std::__1::__tree"** %18, align 4
  %58 = load %"class.std::__1::__tree"*, %"class.std::__1::__tree"** %18, align 4
  %59 = getelementptr inbounds %"class.std::__1::__tree", %"class.std::__1::__tree"* %58, i32 0, i32 1, !dbg !18695
  store %"class.std::__1::__compressed_pair"* %59, %"class.std::__1::__compressed_pair"** %17, align 4
  %60 = load %"class.std::__1::__compressed_pair"*, %"class.std::__1::__compressed_pair"** %17, align 4
  %61 = bitcast %"class.std::__1::__compressed_pair"* %60 to %"struct.std::__1::__compressed_pair_elem"*, !dbg !18696
  store %"struct.std::__1::__compressed_pair_elem"* %61, %"struct.std::__1::__compressed_pair_elem"** %16, align 4
  %62 = load %"struct.std::__1::__compressed_pair_elem"*, %"struct.std::__1::__compressed_pair_elem"** %16, align 4
  %63 = getelementptr inbounds %"struct.std::__1::__compressed_pair_elem", %"struct.std::__1::__compressed_pair_elem"* %62, i32 0, i32 0, !dbg !18697
  store %"class.std::__1::__tree_end_node"* %63, %"class.std::__1::__tree_end_node"** %15, align 4
  %64 = load %"class.std::__1::__tree_end_node"*, %"class.std::__1::__tree_end_node"** %15, align 4, !dbg !18698
  store %"class.std::__1::__tree_end_node"* %64, %"class.std::__1::__tree_end_node"** %14, align 4
  %65 = load %"class.std::__1::__tree_end_node"*, %"class.std::__1::__tree_end_node"** %14, align 4, !dbg !18699
  store %"class.std::__1::__tree"* %28, %"class.std::__1::__tree"** %19, align 4
  %66 = load %"class.std::__1::__tree"*, %"class.std::__1::__tree"** %19, align 4
  %67 = getelementptr inbounds %"class.std::__1::__tree", %"class.std::__1::__tree"* %66, i32 0, i32 0, !dbg !18700
  store %"class.std::__1::__tree_end_node"* %65, %"class.std::__1::__tree_end_node"** %67, align 4, !dbg !18701
  ret %"class.std::__1::__tree"* %28, !dbg !18702
}

; Function Attrs: noinline nounwind optnone sspstrong uwtable
define linkonce_odr %"class.std::__1::__tree.6"* @_ZNSt3__16__treeINS_12__value_typeIN7android8String16EiEENS_19__map_value_compareIS3_S4_NS_4lessIS3_EELb1EEENS_9allocatorIS4_EEEC2ERKS8_(%"class.std::__1::__tree.6"* returned, %"class.std::__1::__map_value_compare.13"* dereferenceable(1)) unnamed_addr #0 comdat align 2 !dbg !18703 {
  %3 = alloca i32*, align 4
  call void @llvm.dbg.declare(metadata i32** %3, metadata !18533, metadata !DIExpression()), !dbg !18704
  %4 = alloca %"struct.std::__1::__compressed_pair_elem.3"*, align 4
  call void @llvm.dbg.declare(metadata %"struct.std::__1::__compressed_pair_elem.3"** %4, metadata !18559, metadata !DIExpression()), !dbg !18714
  %5 = alloca i32*, align 4
  call void @llvm.dbg.declare(metadata i32** %5, metadata !18562, metadata !DIExpression()), !dbg !18715
  %6 = alloca %"class.std::__1::__map_value_compare.13"*, align 4
  call void @llvm.dbg.declare(metadata %"class.std::__1::__map_value_compare.13"** %6, metadata !18716, metadata !DIExpression()), !dbg !18725
  %7 = alloca %"class.std::__1::__map_value_compare.13"*, align 4
  call void @llvm.dbg.declare(metadata %"class.std::__1::__map_value_compare.13"** %7, metadata !18716, metadata !DIExpression()), !dbg !18727
  %8 = alloca %"struct.std::__1::__compressed_pair_elem.12"*, align 4
  call void @llvm.dbg.declare(metadata %"struct.std::__1::__compressed_pair_elem.12"** %8, metadata !18736, metadata !DIExpression()), !dbg !18738
  %9 = alloca %"class.std::__1::__map_value_compare.13"*, align 4
  call void @llvm.dbg.declare(metadata %"class.std::__1::__map_value_compare.13"** %9, metadata !18739, metadata !DIExpression()), !dbg !18740
  %10 = alloca i32*, align 4
  call void @llvm.dbg.declare(metadata i32** %10, metadata !18533, metadata !DIExpression()), !dbg !18741
  %11 = alloca %"class.std::__1::__compressed_pair.11"*, align 4
  call void @llvm.dbg.declare(metadata %"class.std::__1::__compressed_pair.11"** %11, metadata !18743, metadata !DIExpression()), !dbg !18745
  %12 = alloca i32*, align 4
  call void @llvm.dbg.declare(metadata i32** %12, metadata !18746, metadata !DIExpression()), !dbg !18747
  %13 = alloca %"class.std::__1::__map_value_compare.13"*, align 4
  call void @llvm.dbg.declare(metadata %"class.std::__1::__map_value_compare.13"** %13, metadata !18748, metadata !DIExpression()), !dbg !18749
  %14 = alloca %"class.std::__1::__tree_end_node"*, align 4
  call void @llvm.dbg.declare(metadata %"class.std::__1::__tree_end_node"** %14, metadata !18598, metadata !DIExpression()), !dbg !18750
  %15 = alloca %"class.std::__1::__tree_end_node"*, align 4
  call void @llvm.dbg.declare(metadata %"class.std::__1::__tree_end_node"** %15, metadata !18625, metadata !DIExpression()), !dbg !18756
  %16 = alloca %"struct.std::__1::__compressed_pair_elem"*, align 4
  call void @llvm.dbg.declare(metadata %"struct.std::__1::__compressed_pair_elem"** %16, metadata !18627, metadata !DIExpression()), !dbg !18757
  %17 = alloca %"class.std::__1::__compressed_pair.7"*, align 4
  call void @llvm.dbg.declare(metadata %"class.std::__1::__compressed_pair.7"** %17, metadata !18761, metadata !DIExpression()), !dbg !18763
  %18 = alloca %"class.std::__1::__tree.6"*, align 4
  call void @llvm.dbg.declare(metadata %"class.std::__1::__tree.6"** %18, metadata !18764, metadata !DIExpression()), !dbg !18766
  %19 = alloca %"class.std::__1::__tree.6"*, align 4
  call void @llvm.dbg.declare(metadata %"class.std::__1::__tree.6"** %19, metadata !18767, metadata !DIExpression()), !dbg !18769
  %20 = alloca %"class.std::__1::allocator.9"*, align 4
  call void @llvm.dbg.declare(metadata %"class.std::__1::allocator.9"** %20, metadata !18771, metadata !DIExpression()), !dbg !18774
  %21 = alloca %"struct.std::__1::__compressed_pair_elem.8"*, align 4
  call void @llvm.dbg.declare(metadata %"struct.std::__1::__compressed_pair_elem.8"** %21, metadata !18783, metadata !DIExpression()), !dbg !18785
  %22 = alloca %"class.std::__1::__tree_end_node"*, align 4
  call void @llvm.dbg.declare(metadata %"class.std::__1::__tree_end_node"** %22, metadata !18661, metadata !DIExpression()), !dbg !18786
  %23 = alloca %"struct.std::__1::__compressed_pair_elem"*, align 4
  call void @llvm.dbg.declare(metadata %"struct.std::__1::__compressed_pair_elem"** %23, metadata !18667, metadata !DIExpression()), !dbg !18789
  %24 = alloca %"class.std::__1::__compressed_pair.7"*, align 4
  call void @llvm.dbg.declare(metadata %"class.std::__1::__compressed_pair.7"** %24, metadata !18790, metadata !DIExpression()), !dbg !18791
  %25 = alloca %"class.std::__1::__tree.6"*, align 4
  %26 = alloca %"class.std::__1::__map_value_compare.13"*, align 4
  %27 = alloca i32, align 4
  store %"class.std::__1::__tree.6"* %0, %"class.std::__1::__tree.6"** %25, align 4
  call void @llvm.dbg.declare(metadata %"class.std::__1::__tree.6"** %25, metadata !18792, metadata !DIExpression()), !dbg !18793
  store %"class.std::__1::__map_value_compare.13"* %1, %"class.std::__1::__map_value_compare.13"** %26, align 4
  call void @llvm.dbg.declare(metadata %"class.std::__1::__map_value_compare.13"** %26, metadata !18794, metadata !DIExpression()), !dbg !18795
  %28 = load %"class.std::__1::__tree.6"*, %"class.std::__1::__tree.6"** %25, align 4
  %29 = getelementptr inbounds %"class.std::__1::__tree.6", %"class.std::__1::__tree.6"* %28, i32 0, i32 1, !dbg !18796
  store %"class.std::__1::__compressed_pair.7"* %29, %"class.std::__1::__compressed_pair.7"** %24, align 4
  %30 = load %"class.std::__1::__compressed_pair.7"*, %"class.std::__1::__compressed_pair.7"** %24, align 4
  %31 = bitcast %"class.std::__1::__compressed_pair.7"* %30 to %"struct.std::__1::__compressed_pair_elem"*, !dbg !18797
  store %"struct.std::__1::__compressed_pair_elem"* %31, %"struct.std::__1::__compressed_pair_elem"** %23, align 4
  %32 = load %"struct.std::__1::__compressed_pair_elem"*, %"struct.std::__1::__compressed_pair_elem"** %23, align 4
  %33 = getelementptr inbounds %"struct.std::__1::__compressed_pair_elem", %"struct.std::__1::__compressed_pair_elem"* %32, i32 0, i32 0, !dbg !18798
  store %"class.std::__1::__tree_end_node"* %33, %"class.std::__1::__tree_end_node"** %22, align 4
  %34 = load %"class.std::__1::__tree_end_node"*, %"class.std::__1::__tree_end_node"** %22, align 4
  %35 = getelementptr inbounds %"class.std::__1::__tree_end_node", %"class.std::__1::__tree_end_node"* %34, i32 0, i32 0, !dbg !18799
  store %"class.std::__1::__tree_node_base"* null, %"class.std::__1::__tree_node_base"** %35, align 4, !dbg !18799
  %36 = bitcast %"class.std::__1::__compressed_pair.7"* %30 to %"struct.std::__1::__compressed_pair_elem.8"*, !dbg !18797
  store %"struct.std::__1::__compressed_pair_elem.8"* %36, %"struct.std::__1::__compressed_pair_elem.8"** %21, align 4
  %37 = load %"struct.std::__1::__compressed_pair_elem.8"*, %"struct.std::__1::__compressed_pair_elem.8"** %21, align 4
  %38 = bitcast %"struct.std::__1::__compressed_pair_elem.8"* %37 to %"class.std::__1::allocator.9"*, !dbg !18800
  store %"class.std::__1::allocator.9"* %38, %"class.std::__1::allocator.9"** %20, align 4
  %39 = load %"class.std::__1::allocator.9"*, %"class.std::__1::allocator.9"** %20, align 4
  %40 = getelementptr inbounds %"class.std::__1::__tree.6", %"class.std::__1::__tree.6"* %28, i32 0, i32 2, !dbg !18801
  store i32 0, i32* %27, align 4, !dbg !18802
  %41 = load %"class.std::__1::__map_value_compare.13"*, %"class.std::__1::__map_value_compare.13"** %26, align 4, !dbg !18803
  store %"class.std::__1::__compressed_pair.11"* %40, %"class.std::__1::__compressed_pair.11"** %11, align 4
  store i32* %27, i32** %12, align 4
  store %"class.std::__1::__map_value_compare.13"* %41, %"class.std::__1::__map_value_compare.13"** %13, align 4
  %42 = load %"class.std::__1::__compressed_pair.11"*, %"class.std::__1::__compressed_pair.11"** %11, align 4
  %43 = bitcast %"class.std::__1::__compressed_pair.11"* %42 to %"struct.std::__1::__compressed_pair_elem.3"*, !dbg !18804
  %44 = load i32*, i32** %12, align 4, !dbg !18805
  store i32* %44, i32** %10, align 4
  %45 = load i32*, i32** %10, align 4, !dbg !18806
  store %"struct.std::__1::__compressed_pair_elem.3"* %43, %"struct.std::__1::__compressed_pair_elem.3"** %4, align 4
  store i32* %45, i32** %5, align 4
  %46 = load %"struct.std::__1::__compressed_pair_elem.3"*, %"struct.std::__1::__compressed_pair_elem.3"** %4, align 4
  %47 = getelementptr inbounds %"struct.std::__1::__compressed_pair_elem.3", %"struct.std::__1::__compressed_pair_elem.3"* %46, i32 0, i32 0, !dbg !18807
  %48 = load i32*, i32** %5, align 4, !dbg !18808
  store i32* %48, i32** %3, align 4
  %49 = load i32*, i32** %3, align 4, !dbg !18809
  %50 = load i32, i32* %49, align 4, !dbg !18810
  store i32 %50, i32* %47, align 4, !dbg !18807
  %51 = bitcast %"class.std::__1::__compressed_pair.11"* %42 to %"struct.std::__1::__compressed_pair_elem.12"*, !dbg !18804
  %52 = load %"class.std::__1::__map_value_compare.13"*, %"class.std::__1::__map_value_compare.13"** %13, align 4, !dbg !18811
  store %"class.std::__1::__map_value_compare.13"* %52, %"class.std::__1::__map_value_compare.13"** %6, align 4
  %53 = load %"class.std::__1::__map_value_compare.13"*, %"class.std::__1::__map_value_compare.13"** %6, align 4, !dbg !18812
  store %"struct.std::__1::__compressed_pair_elem.12"* %51, %"struct.std::__1::__compressed_pair_elem.12"** %8, align 4
  store %"class.std::__1::__map_value_compare.13"* %53, %"class.std::__1::__map_value_compare.13"** %9, align 4
  %54 = load %"struct.std::__1::__compressed_pair_elem.12"*, %"struct.std::__1::__compressed_pair_elem.12"** %8, align 4
  %55 = bitcast %"struct.std::__1::__compressed_pair_elem.12"* %54 to %"class.std::__1::__map_value_compare.13"*, !dbg !18813
  %56 = load %"class.std::__1::__map_value_compare.13"*, %"class.std::__1::__map_value_compare.13"** %9, align 4, !dbg !18814
  store %"class.std::__1::__map_value_compare.13"* %56, %"class.std::__1::__map_value_compare.13"** %7, align 4
  %57 = load %"class.std::__1::__map_value_compare.13"*, %"class.std::__1::__map_value_compare.13"** %7, align 4, !dbg !18815
  store %"class.std::__1::__tree.6"* %28, %"class.std::__1::__tree.6"** %18, align 4
  %58 = load %"class.std::__1::__tree.6"*, %"class.std::__1::__tree.6"** %18, align 4
  %59 = getelementptr inbounds %"class.std::__1::__tree.6", %"class.std::__1::__tree.6"* %58, i32 0, i32 1, !dbg !18816
  store %"class.std::__1::__compressed_pair.7"* %59, %"class.std::__1::__compressed_pair.7"** %17, align 4
  %60 = load %"class.std::__1::__compressed_pair.7"*, %"class.std::__1::__compressed_pair.7"** %17, align 4
  %61 = bitcast %"class.std::__1::__compressed_pair.7"* %60 to %"struct.std::__1::__compressed_pair_elem"*, !dbg !18817
  store %"struct.std::__1::__compressed_pair_elem"* %61, %"struct.std::__1::__compressed_pair_elem"** %16, align 4
  %62 = load %"struct.std::__1::__compressed_pair_elem"*, %"struct.std::__1::__compressed_pair_elem"** %16, align 4
  %63 = getelementptr inbounds %"struct.std::__1::__compressed_pair_elem", %"struct.std::__1::__compressed_pair_elem"* %62, i32 0, i32 0, !dbg !18818
  store %"class.std::__1::__tree_end_node"* %63, %"class.std::__1::__tree_end_node"** %15, align 4
  %64 = load %"class.std::__1::__tree_end_node"*, %"class.std::__1::__tree_end_node"** %15, align 4, !dbg !18819
  store %"class.std::__1::__tree_end_node"* %64, %"class.std::__1::__tree_end_node"** %14, align 4
  %65 = load %"class.std::__1::__tree_end_node"*, %"class.std::__1::__tree_end_node"** %14, align 4, !dbg !18820
  store %"class.std::__1::__tree.6"* %28, %"class.std::__1::__tree.6"** %19, align 4
  %66 = load %"class.std::__1::__tree.6"*, %"class.std::__1::__tree.6"** %19, align 4
  %67 = getelementptr inbounds %"class.std::__1::__tree.6", %"class.std::__1::__tree.6"* %66, i32 0, i32 0, !dbg !18821
  store %"class.std::__1::__tree_end_node"* %65, %"class.std::__1::__tree_end_node"** %67, align 4, !dbg !18822
  ret %"class.std::__1::__tree.6"* %28, !dbg !18823
}

; Function Attrs: noinline nounwind optnone sspstrong uwtable
define linkonce_odr %"class.std::__1::__tree.15"* @_ZNSt3__16__treeINS_12__value_typeIN7android8String16ExEENS_19__map_value_compareIS3_S4_NS_4lessIS3_EELb1EEENS_9allocatorIS4_EEEC2ERKS8_(%"class.std::__1::__tree.15"* returned, %"class.std::__1::__map_value_compare.22"* dereferenceable(1)) unnamed_addr #0 comdat align 2 !dbg !18824 {
  %3 = alloca i32*, align 4
  call void @llvm.dbg.declare(metadata i32** %3, metadata !18533, metadata !DIExpression()), !dbg !18825
  %4 = alloca %"struct.std::__1::__compressed_pair_elem.3"*, align 4
  call void @llvm.dbg.declare(metadata %"struct.std::__1::__compressed_pair_elem.3"** %4, metadata !18559, metadata !DIExpression()), !dbg !18835
  %5 = alloca i32*, align 4
  call void @llvm.dbg.declare(metadata i32** %5, metadata !18562, metadata !DIExpression()), !dbg !18836
  %6 = alloca %"class.std::__1::__map_value_compare.22"*, align 4
  call void @llvm.dbg.declare(metadata %"class.std::__1::__map_value_compare.22"** %6, metadata !18837, metadata !DIExpression()), !dbg !18846
  %7 = alloca %"class.std::__1::__map_value_compare.22"*, align 4
  call void @llvm.dbg.declare(metadata %"class.std::__1::__map_value_compare.22"** %7, metadata !18837, metadata !DIExpression()), !dbg !18848
  %8 = alloca %"struct.std::__1::__compressed_pair_elem.21"*, align 4
  call void @llvm.dbg.declare(metadata %"struct.std::__1::__compressed_pair_elem.21"** %8, metadata !18857, metadata !DIExpression()), !dbg !18859
  %9 = alloca %"class.std::__1::__map_value_compare.22"*, align 4
  call void @llvm.dbg.declare(metadata %"class.std::__1::__map_value_compare.22"** %9, metadata !18860, metadata !DIExpression()), !dbg !18861
  %10 = alloca i32*, align 4
  call void @llvm.dbg.declare(metadata i32** %10, metadata !18533, metadata !DIExpression()), !dbg !18862
  %11 = alloca %"class.std::__1::__compressed_pair.20"*, align 4
  call void @llvm.dbg.declare(metadata %"class.std::__1::__compressed_pair.20"** %11, metadata !18864, metadata !DIExpression()), !dbg !18866
  %12 = alloca i32*, align 4
  call void @llvm.dbg.declare(metadata i32** %12, metadata !18867, metadata !DIExpression()), !dbg !18868
  %13 = alloca %"class.std::__1::__map_value_compare.22"*, align 4
  call void @llvm.dbg.declare(metadata %"class.std::__1::__map_value_compare.22"** %13, metadata !18869, metadata !DIExpression()), !dbg !18870
  %14 = alloca %"class.std::__1::__tree_end_node"*, align 4
  call void @llvm.dbg.declare(metadata %"class.std::__1::__tree_end_node"** %14, metadata !18598, metadata !DIExpression()), !dbg !18871
  %15 = alloca %"class.std::__1::__tree_end_node"*, align 4
  call void @llvm.dbg.declare(metadata %"class.std::__1::__tree_end_node"** %15, metadata !18625, metadata !DIExpression()), !dbg !18877
  %16 = alloca %"struct.std::__1::__compressed_pair_elem"*, align 4
  call void @llvm.dbg.declare(metadata %"struct.std::__1::__compressed_pair_elem"** %16, metadata !18627, metadata !DIExpression()), !dbg !18878
  %17 = alloca %"class.std::__1::__compressed_pair.16"*, align 4
  call void @llvm.dbg.declare(metadata %"class.std::__1::__compressed_pair.16"** %17, metadata !18882, metadata !DIExpression()), !dbg !18884
  %18 = alloca %"class.std::__1::__tree.15"*, align 4
  call void @llvm.dbg.declare(metadata %"class.std::__1::__tree.15"** %18, metadata !18885, metadata !DIExpression()), !dbg !18887
  %19 = alloca %"class.std::__1::__tree.15"*, align 4
  call void @llvm.dbg.declare(metadata %"class.std::__1::__tree.15"** %19, metadata !18888, metadata !DIExpression()), !dbg !18890
  %20 = alloca %"class.std::__1::allocator.18"*, align 4
  call void @llvm.dbg.declare(metadata %"class.std::__1::allocator.18"** %20, metadata !18892, metadata !DIExpression()), !dbg !18895
  %21 = alloca %"struct.std::__1::__compressed_pair_elem.17"*, align 4
  call void @llvm.dbg.declare(metadata %"struct.std::__1::__compressed_pair_elem.17"** %21, metadata !18904, metadata !DIExpression()), !dbg !18906
  %22 = alloca %"class.std::__1::__tree_end_node"*, align 4
  call void @llvm.dbg.declare(metadata %"class.std::__1::__tree_end_node"** %22, metadata !18661, metadata !DIExpression()), !dbg !18907
  %23 = alloca %"struct.std::__1::__compressed_pair_elem"*, align 4
  call void @llvm.dbg.declare(metadata %"struct.std::__1::__compressed_pair_elem"** %23, metadata !18667, metadata !DIExpression()), !dbg !18910
  %24 = alloca %"class.std::__1::__compressed_pair.16"*, align 4
  call void @llvm.dbg.declare(metadata %"class.std::__1::__compressed_pair.16"** %24, metadata !18911, metadata !DIExpression()), !dbg !18912
  %25 = alloca %"class.std::__1::__tree.15"*, align 4
  %26 = alloca %"class.std::__1::__map_value_compare.22"*, align 4
  %27 = alloca i32, align 4
  store %"class.std::__1::__tree.15"* %0, %"class.std::__1::__tree.15"** %25, align 4
  call void @llvm.dbg.declare(metadata %"class.std::__1::__tree.15"** %25, metadata !18913, metadata !DIExpression()), !dbg !18914
  store %"class.std::__1::__map_value_compare.22"* %1, %"class.std::__1::__map_value_compare.22"** %26, align 4
  call void @llvm.dbg.declare(metadata %"class.std::__1::__map_value_compare.22"** %26, metadata !18915, metadata !DIExpression()), !dbg !18916
  %28 = load %"class.std::__1::__tree.15"*, %"class.std::__1::__tree.15"** %25, align 4
  %29 = getelementptr inbounds %"class.std::__1::__tree.15", %"class.std::__1::__tree.15"* %28, i32 0, i32 1, !dbg !18917
  store %"class.std::__1::__compressed_pair.16"* %29, %"class.std::__1::__compressed_pair.16"** %24, align 4
  %30 = load %"class.std::__1::__compressed_pair.16"*, %"class.std::__1::__compressed_pair.16"** %24, align 4
  %31 = bitcast %"class.std::__1::__compressed_pair.16"* %30 to %"struct.std::__1::__compressed_pair_elem"*, !dbg !18918
  store %"struct.std::__1::__compressed_pair_elem"* %31, %"struct.std::__1::__compressed_pair_elem"** %23, align 4
  %32 = load %"struct.std::__1::__compressed_pair_elem"*, %"struct.std::__1::__compressed_pair_elem"** %23, align 4
  %33 = getelementptr inbounds %"struct.std::__1::__compressed_pair_elem", %"struct.std::__1::__compressed_pair_elem"* %32, i32 0, i32 0, !dbg !18919
  store %"class.std::__1::__tree_end_node"* %33, %"class.std::__1::__tree_end_node"** %22, align 4
  %34 = load %"class.std::__1::__tree_end_node"*, %"class.std::__1::__tree_end_node"** %22, align 4
  %35 = getelementptr inbounds %"class.std::__1::__tree_end_node", %"class.std::__1::__tree_end_node"* %34, i32 0, i32 0, !dbg !18920
  store %"class.std::__1::__tree_node_base"* null, %"class.std::__1::__tree_node_base"** %35, align 4, !dbg !18920
  %36 = bitcast %"class.std::__1::__compressed_pair.16"* %30 to %"struct.std::__1::__compressed_pair_elem.17"*, !dbg !18918
  store %"struct.std::__1::__compressed_pair_elem.17"* %36, %"struct.std::__1::__compressed_pair_elem.17"** %21, align 4
  %37 = load %"struct.std::__1::__compressed_pair_elem.17"*, %"struct.std::__1::__compressed_pair_elem.17"** %21, align 4
  %38 = bitcast %"struct.std::__1::__compressed_pair_elem.17"* %37 to %"class.std::__1::allocator.18"*, !dbg !18921
  store %"class.std::__1::allocator.18"* %38, %"class.std::__1::allocator.18"** %20, align 4
  %39 = load %"class.std::__1::allocator.18"*, %"class.std::__1::allocator.18"** %20, align 4
  %40 = getelementptr inbounds %"class.std::__1::__tree.15", %"class.std::__1::__tree.15"* %28, i32 0, i32 2, !dbg !18922
  store i32 0, i32* %27, align 4, !dbg !18923
  %41 = load %"class.std::__1::__map_value_compare.22"*, %"class.std::__1::__map_value_compare.22"** %26, align 4, !dbg !18924
  store %"class.std::__1::__compressed_pair.20"* %40, %"class.std::__1::__compressed_pair.20"** %11, align 4
  store i32* %27, i32** %12, align 4
  store %"class.std::__1::__map_value_compare.22"* %41, %"class.std::__1::__map_value_compare.22"** %13, align 4
  %42 = load %"class.std::__1::__compressed_pair.20"*, %"class.std::__1::__compressed_pair.20"** %11, align 4
  %43 = bitcast %"class.std::__1::__compressed_pair.20"* %42 to %"struct.std::__1::__compressed_pair_elem.3"*, !dbg !18925
  %44 = load i32*, i32** %12, align 4, !dbg !18926
  store i32* %44, i32** %10, align 4
  %45 = load i32*, i32** %10, align 4, !dbg !18927
  store %"struct.std::__1::__compressed_pair_elem.3"* %43, %"struct.std::__1::__compressed_pair_elem.3"** %4, align 4
  store i32* %45, i32** %5, align 4
  %46 = load %"struct.std::__1::__compressed_pair_elem.3"*, %"struct.std::__1::__compressed_pair_elem.3"** %4, align 4
  %47 = getelementptr inbounds %"struct.std::__1::__compressed_pair_elem.3", %"struct.std::__1::__compressed_pair_elem.3"* %46, i32 0, i32 0, !dbg !18928
  %48 = load i32*, i32** %5, align 4, !dbg !18929
  store i32* %48, i32** %3, align 4
  %49 = load i32*, i32** %3, align 4, !dbg !18930
  %50 = load i32, i32* %49, align 4, !dbg !18931
  store i32 %50, i32* %47, align 4, !dbg !18928
  %51 = bitcast %"class.std::__1::__compressed_pair.20"* %42 to %"struct.std::__1::__compressed_pair_elem.21"*, !dbg !18925
  %52 = load %"class.std::__1::__map_value_compare.22"*, %"class.std::__1::__map_value_compare.22"** %13, align 4, !dbg !18932
  store %"class.std::__1::__map_value_compare.22"* %52, %"class.std::__1::__map_value_compare.22"** %6, align 4
  %53 = load %"class.std::__1::__map_value_compare.22"*, %"class.std::__1::__map_value_compare.22"** %6, align 4, !dbg !18933
  store %"struct.std::__1::__compressed_pair_elem.21"* %51, %"struct.std::__1::__compressed_pair_elem.21"** %8, align 4
  store %"class.std::__1::__map_value_compare.22"* %53, %"class.std::__1::__map_value_compare.22"** %9, align 4
  %54 = load %"struct.std::__1::__compressed_pair_elem.21"*, %"struct.std::__1::__compressed_pair_elem.21"** %8, align 4
  %55 = bitcast %"struct.std::__1::__compressed_pair_elem.21"* %54 to %"class.std::__1::__map_value_compare.22"*, !dbg !18934
  %56 = load %"class.std::__1::__map_value_compare.22"*, %"class.std::__1::__map_value_compare.22"** %9, align 4, !dbg !18935
  store %"class.std::__1::__map_value_compare.22"* %56, %"class.std::__1::__map_value_compare.22"** %7, align 4
  %57 = load %"class.std::__1::__map_value_compare.22"*, %"class.std::__1::__map_value_compare.22"** %7, align 4, !dbg !18936
  store %"class.std::__1::__tree.15"* %28, %"class.std::__1::__tree.15"** %18, align 4
  %58 = load %"class.std::__1::__tree.15"*, %"class.std::__1::__tree.15"** %18, align 4
  %59 = getelementptr inbounds %"class.std::__1::__tree.15", %"class.std::__1::__tree.15"* %58, i32 0, i32 1, !dbg !18937
  store %"class.std::__1::__compressed_pair.16"* %59, %"class.std::__1::__compressed_pair.16"** %17, align 4
  %60 = load %"class.std::__1::__compressed_pair.16"*, %"class.std::__1::__compressed_pair.16"** %17, align 4
  %61 = bitcast %"class.std::__1::__compressed_pair.16"* %60 to %"struct.std::__1::__compressed_pair_elem"*, !dbg !18938
  store %"struct.std::__1::__compressed_pair_elem"* %61, %"struct.std::__1::__compressed_pair_elem"** %16, align 4
  %62 = load %"struct.std::__1::__compressed_pair_elem"*, %"struct.std::__1::__compressed_pair_elem"** %16, align 4
  %63 = getelementptr inbounds %"struct.std::__1::__compressed_pair_elem", %"struct.std::__1::__compressed_pair_elem"* %62, i32 0, i32 0, !dbg !18939
  store %"class.std::__1::__tree_end_node"* %63, %"class.std::__1::__tree_end_node"** %15, align 4
  %64 = load %"class.std::__1::__tree_end_node"*, %"class.std::__1::__tree_end_node"** %15, align 4, !dbg !18940
  store %"class.std::__1::__tree_end_node"* %64, %"class.std::__1::__tree_end_node"** %14, align 4
  %65 = load %"class.std::__1::__tree_end_node"*, %"class.std::__1::__tree_end_node"** %14, align 4, !dbg !18941
  store %"class.std::__1::__tree.15"* %28, %"class.std::__1::__tree.15"** %19, align 4
  %66 = load %"class.std::__1::__tree.15"*, %"class.std::__1::__tree.15"** %19, align 4
  %67 = getelementptr inbounds %"class.std::__1::__tree.15", %"class.std::__1::__tree.15"* %66, i32 0, i32 0, !dbg !18942
  store %"class.std::__1::__tree_end_node"* %65, %"class.std::__1::__tree_end_node"** %67, align 4, !dbg !18943
  ret %"class.std::__1::__tree.15"* %28, !dbg !18944
}

; Function Attrs: noinline nounwind optnone sspstrong uwtable
define linkonce_odr %"class.std::__1::__tree.24"* @_ZNSt3__16__treeINS_12__value_typeIN7android8String16EdEENS_19__map_value_compareIS3_S4_NS_4lessIS3_EELb1EEENS_9allocatorIS4_EEEC2ERKS8_(%"class.std::__1::__tree.24"* returned, %"class.std::__1::__map_value_compare.31"* dereferenceable(1)) unnamed_addr #0 comdat align 2 !dbg !18945 {
  %3 = alloca i32*, align 4
  call void @llvm.dbg.declare(metadata i32** %3, metadata !18533, metadata !DIExpression()), !dbg !18946
  %4 = alloca %"struct.std::__1::__compressed_pair_elem.3"*, align 4
  call void @llvm.dbg.declare(metadata %"struct.std::__1::__compressed_pair_elem.3"** %4, metadata !18559, metadata !DIExpression()), !dbg !18956
  %5 = alloca i32*, align 4
  call void @llvm.dbg.declare(metadata i32** %5, metadata !18562, metadata !DIExpression()), !dbg !18957
  %6 = alloca %"class.std::__1::__map_value_compare.31"*, align 4
  call void @llvm.dbg.declare(metadata %"class.std::__1::__map_value_compare.31"** %6, metadata !18958, metadata !DIExpression()), !dbg !18967
  %7 = alloca %"class.std::__1::__map_value_compare.31"*, align 4
  call void @llvm.dbg.declare(metadata %"class.std::__1::__map_value_compare.31"** %7, metadata !18958, metadata !DIExpression()), !dbg !18969
  %8 = alloca %"struct.std::__1::__compressed_pair_elem.30"*, align 4
  call void @llvm.dbg.declare(metadata %"struct.std::__1::__compressed_pair_elem.30"** %8, metadata !18978, metadata !DIExpression()), !dbg !18980
  %9 = alloca %"class.std::__1::__map_value_compare.31"*, align 4
  call void @llvm.dbg.declare(metadata %"class.std::__1::__map_value_compare.31"** %9, metadata !18981, metadata !DIExpression()), !dbg !18982
  %10 = alloca i32*, align 4
  call void @llvm.dbg.declare(metadata i32** %10, metadata !18533, metadata !DIExpression()), !dbg !18983
  %11 = alloca %"class.std::__1::__compressed_pair.29"*, align 4
  call void @llvm.dbg.declare(metadata %"class.std::__1::__compressed_pair.29"** %11, metadata !18985, metadata !DIExpression()), !dbg !18987
  %12 = alloca i32*, align 4
  call void @llvm.dbg.declare(metadata i32** %12, metadata !18988, metadata !DIExpression()), !dbg !18989
  %13 = alloca %"class.std::__1::__map_value_compare.31"*, align 4
  call void @llvm.dbg.declare(metadata %"class.std::__1::__map_value_compare.31"** %13, metadata !18990, metadata !DIExpression()), !dbg !18991
  %14 = alloca %"class.std::__1::__tree_end_node"*, align 4
  call void @llvm.dbg.declare(metadata %"class.std::__1::__tree_end_node"** %14, metadata !18598, metadata !DIExpression()), !dbg !18992
  %15 = alloca %"class.std::__1::__tree_end_node"*, align 4
  call void @llvm.dbg.declare(metadata %"class.std::__1::__tree_end_node"** %15, metadata !18625, metadata !DIExpression()), !dbg !18998
  %16 = alloca %"struct.std::__1::__compressed_pair_elem"*, align 4
  call void @llvm.dbg.declare(metadata %"struct.std::__1::__compressed_pair_elem"** %16, metadata !18627, metadata !DIExpression()), !dbg !18999
  %17 = alloca %"class.std::__1::__compressed_pair.25"*, align 4
  call void @llvm.dbg.declare(metadata %"class.std::__1::__compressed_pair.25"** %17, metadata !19003, metadata !DIExpression()), !dbg !19005
  %18 = alloca %"class.std::__1::__tree.24"*, align 4
  call void @llvm.dbg.declare(metadata %"class.std::__1::__tree.24"** %18, metadata !19006, metadata !DIExpression()), !dbg !19008
  %19 = alloca %"class.std::__1::__tree.24"*, align 4
  call void @llvm.dbg.declare(metadata %"class.std::__1::__tree.24"** %19, metadata !19009, metadata !DIExpression()), !dbg !19011
  %20 = alloca %"class.std::__1::allocator.27"*, align 4
  call void @llvm.dbg.declare(metadata %"class.std::__1::allocator.27"** %20, metadata !19013, metadata !DIExpression()), !dbg !19016
  %21 = alloca %"struct.std::__1::__compressed_pair_elem.26"*, align 4
  call void @llvm.dbg.declare(metadata %"struct.std::__1::__compressed_pair_elem.26"** %21, metadata !19025, metadata !DIExpression()), !dbg !19027
  %22 = alloca %"class.std::__1::__tree_end_node"*, align 4
  call void @llvm.dbg.declare(metadata %"class.std::__1::__tree_end_node"** %22, metadata !18661, metadata !DIExpression()), !dbg !19028
  %23 = alloca %"struct.std::__1::__compressed_pair_elem"*, align 4
  call void @llvm.dbg.declare(metadata %"struct.std::__1::__compressed_pair_elem"** %23, metadata !18667, metadata !DIExpression()), !dbg !19031
  %24 = alloca %"class.std::__1::__compressed_pair.25"*, align 4
  call void @llvm.dbg.declare(metadata %"class.std::__1::__compressed_pair.25"** %24, metadata !19032, metadata !DIExpression()), !dbg !19033
  %25 = alloca %"class.std::__1::__tree.24"*, align 4
  %26 = alloca %"class.std::__1::__map_value_compare.31"*, align 4
  %27 = alloca i32, align 4
  store %"class.std::__1::__tree.24"* %0, %"class.std::__1::__tree.24"** %25, align 4
  call void @llvm.dbg.declare(metadata %"class.std::__1::__tree.24"** %25, metadata !19034, metadata !DIExpression()), !dbg !19035
  store %"class.std::__1::__map_value_compare.31"* %1, %"class.std::__1::__map_value_compare.31"** %26, align 4
  call void @llvm.dbg.declare(metadata %"class.std::__1::__map_value_compare.31"** %26, metadata !19036, metadata !DIExpression()), !dbg !19037
  %28 = load %"class.std::__1::__tree.24"*, %"class.std::__1::__tree.24"** %25, align 4
  %29 = getelementptr inbounds %"class.std::__1::__tree.24", %"class.std::__1::__tree.24"* %28, i32 0, i32 1, !dbg !19038
  store %"class.std::__1::__compressed_pair.25"* %29, %"class.std::__1::__compressed_pair.25"** %24, align 4
  %30 = load %"class.std::__1::__compressed_pair.25"*, %"class.std::__1::__compressed_pair.25"** %24, align 4
  %31 = bitcast %"class.std::__1::__compressed_pair.25"* %30 to %"struct.std::__1::__compressed_pair_elem"*, !dbg !19039
  store %"struct.std::__1::__compressed_pair_elem"* %31, %"struct.std::__1::__compressed_pair_elem"** %23, align 4
  %32 = load %"struct.std::__1::__compressed_pair_elem"*, %"struct.std::__1::__compressed_pair_elem"** %23, align 4
  %33 = getelementptr inbounds %"struct.std::__1::__compressed_pair_elem", %"struct.std::__1::__compressed_pair_elem"* %32, i32 0, i32 0, !dbg !19040
  store %"class.std::__1::__tree_end_node"* %33, %"class.std::__1::__tree_end_node"** %22, align 4
  %34 = load %"class.std::__1::__tree_end_node"*, %"class.std::__1::__tree_end_node"** %22, align 4
  %35 = getelementptr inbounds %"class.std::__1::__tree_end_node", %"class.std::__1::__tree_end_node"* %34, i32 0, i32 0, !dbg !19041
  store %"class.std::__1::__tree_node_base"* null, %"class.std::__1::__tree_node_base"** %35, align 4, !dbg !19041
  %36 = bitcast %"class.std::__1::__compressed_pair.25"* %30 to %"struct.std::__1::__compressed_pair_elem.26"*, !dbg !19039
  store %"struct.std::__1::__compressed_pair_elem.26"* %36, %"struct.std::__1::__compressed_pair_elem.26"** %21, align 4
  %37 = load %"struct.std::__1::__compressed_pair_elem.26"*, %"struct.std::__1::__compressed_pair_elem.26"** %21, align 4
  %38 = bitcast %"struct.std::__1::__compressed_pair_elem.26"* %37 to %"class.std::__1::allocator.27"*, !dbg !19042
  store %"class.std::__1::allocator.27"* %38, %"class.std::__1::allocator.27"** %20, align 4
  %39 = load %"class.std::__1::allocator.27"*, %"class.std::__1::allocator.27"** %20, align 4
  %40 = getelementptr inbounds %"class.std::__1::__tree.24", %"class.std::__1::__tree.24"* %28, i32 0, i32 2, !dbg !19043
  store i32 0, i32* %27, align 4, !dbg !19044
  %41 = load %"class.std::__1::__map_value_compare.31"*, %"class.std::__1::__map_value_compare.31"** %26, align 4, !dbg !19045
  store %"class.std::__1::__compressed_pair.29"* %40, %"class.std::__1::__compressed_pair.29"** %11, align 4
  store i32* %27, i32** %12, align 4
  store %"class.std::__1::__map_value_compare.31"* %41, %"class.std::__1::__map_value_compare.31"** %13, align 4
  %42 = load %"class.std::__1::__compressed_pair.29"*, %"class.std::__1::__compressed_pair.29"** %11, align 4
  %43 = bitcast %"class.std::__1::__compressed_pair.29"* %42 to %"struct.std::__1::__compressed_pair_elem.3"*, !dbg !19046
  %44 = load i32*, i32** %12, align 4, !dbg !19047
  store i32* %44, i32** %10, align 4
  %45 = load i32*, i32** %10, align 4, !dbg !19048
  store %"struct.std::__1::__compressed_pair_elem.3"* %43, %"struct.std::__1::__compressed_pair_elem.3"** %4, align 4
  store i32* %45, i32** %5, align 4
  %46 = load %"struct.std::__1::__compressed_pair_elem.3"*, %"struct.std::__1::__compressed_pair_elem.3"** %4, align 4
  %47 = getelementptr inbounds %"struct.std::__1::__compressed_pair_elem.3", %"struct.std::__1::__compressed_pair_elem.3"* %46, i32 0, i32 0, !dbg !19049
  %48 = load i32*, i32** %5, align 4, !dbg !19050
  store i32* %48, i32** %3, align 4
  %49 = load i32*, i32** %3, align 4, !dbg !19051
  %50 = load i32, i32* %49, align 4, !dbg !19052
  store i32 %50, i32* %47, align 4, !dbg !19049
  %51 = bitcast %"class.std::__1::__compressed_pair.29"* %42 to %"struct.std::__1::__compressed_pair_elem.30"*, !dbg !19046
  %52 = load %"class.std::__1::__map_value_compare.31"*, %"class.std::__1::__map_value_compare.31"** %13, align 4, !dbg !19053
  store %"class.std::__1::__map_value_compare.31"* %52, %"class.std::__1::__map_value_compare.31"** %6, align 4
  %53 = load %"class.std::__1::__map_value_compare.31"*, %"class.std::__1::__map_value_compare.31"** %6, align 4, !dbg !19054
  store %"struct.std::__1::__compressed_pair_elem.30"* %51, %"struct.std::__1::__compressed_pair_elem.30"** %8, align 4
  store %"class.std::__1::__map_value_compare.31"* %53, %"class.std::__1::__map_value_compare.31"** %9, align 4
  %54 = load %"struct.std::__1::__compressed_pair_elem.30"*, %"struct.std::__1::__compressed_pair_elem.30"** %8, align 4
  %55 = bitcast %"struct.std::__1::__compressed_pair_elem.30"* %54 to %"class.std::__1::__map_value_compare.31"*, !dbg !19055
  %56 = load %"class.std::__1::__map_value_compare.31"*, %"class.std::__1::__map_value_compare.31"** %9, align 4, !dbg !19056
  store %"class.std::__1::__map_value_compare.31"* %56, %"class.std::__1::__map_value_compare.31"** %7, align 4
  %57 = load %"class.std::__1::__map_value_compare.31"*, %"class.std::__1::__map_value_compare.31"** %7, align 4, !dbg !19057
  store %"class.std::__1::__tree.24"* %28, %"class.std::__1::__tree.24"** %18, align 4
  %58 = load %"class.std::__1::__tree.24"*, %"class.std::__1::__tree.24"** %18, align 4
  %59 = getelementptr inbounds %"class.std::__1::__tree.24", %"class.std::__1::__tree.24"* %58, i32 0, i32 1, !dbg !19058
  store %"class.std::__1::__compressed_pair.25"* %59, %"class.std::__1::__compressed_pair.25"** %17, align 4
  %60 = load %"class.std::__1::__compressed_pair.25"*, %"class.std::__1::__compressed_pair.25"** %17, align 4
  %61 = bitcast %"class.std::__1::__compressed_pair.25"* %60 to %"struct.std::__1::__compressed_pair_elem"*, !dbg !19059
  store %"struct.std::__1::__compressed_pair_elem"* %61, %"struct.std::__1::__compressed_pair_elem"** %16, align 4
  %62 = load %"struct.std::__1::__compressed_pair_elem"*, %"struct.std::__1::__compressed_pair_elem"** %16, align 4
  %63 = getelementptr inbounds %"struct.std::__1::__compressed_pair_elem", %"struct.std::__1::__compressed_pair_elem"* %62, i32 0, i32 0, !dbg !19060
  store %"class.std::__1::__tree_end_node"* %63, %"class.std::__1::__tree_end_node"** %15, align 4
  %64 = load %"class.std::__1::__tree_end_node"*, %"class.std::__1::__tree_end_node"** %15, align 4, !dbg !19061
  store %"class.std::__1::__tree_end_node"* %64, %"class.std::__1::__tree_end_node"** %14, align 4
  %65 = load %"class.std::__1::__tree_end_node"*, %"class.std::__1::__tree_end_node"** %14, align 4, !dbg !19062
  store %"class.std::__1::__tree.24"* %28, %"class.std::__1::__tree.24"** %19, align 4
  %66 = load %"class.std::__1::__tree.24"*, %"class.std::__1::__tree.24"** %19, align 4
  %67 = getelementptr inbounds %"class.std::__1::__tree.24", %"class.std::__1::__tree.24"* %66, i32 0, i32 0, !dbg !19063
  store %"class.std::__1::__tree_end_node"* %65, %"class.std::__1::__tree_end_node"** %67, align 4, !dbg !19064
  ret %"class.std::__1::__tree.24"* %28, !dbg !19065
}

; Function Attrs: noinline nounwind optnone sspstrong uwtable
define linkonce_odr %"class.std::__1::__tree.33"* @_ZNSt3__16__treeINS_12__value_typeIN7android8String16ES3_EENS_19__map_value_compareIS3_S4_NS_4lessIS3_EELb1EEENS_9allocatorIS4_EEEC2ERKS8_(%"class.std::__1::__tree.33"* returned, %"class.std::__1::__map_value_compare.40"* dereferenceable(1)) unnamed_addr #0 comdat align 2 !dbg !19066 {
  %3 = alloca i32*, align 4
  call void @llvm.dbg.declare(metadata i32** %3, metadata !18533, metadata !DIExpression()), !dbg !19067
  %4 = alloca %"struct.std::__1::__compressed_pair_elem.3"*, align 4
  call void @llvm.dbg.declare(metadata %"struct.std::__1::__compressed_pair_elem.3"** %4, metadata !18559, metadata !DIExpression()), !dbg !19077
  %5 = alloca i32*, align 4
  call void @llvm.dbg.declare(metadata i32** %5, metadata !18562, metadata !DIExpression()), !dbg !19078
  %6 = alloca %"class.std::__1::__map_value_compare.40"*, align 4
  call void @llvm.dbg.declare(metadata %"class.std::__1::__map_value_compare.40"** %6, metadata !19079, metadata !DIExpression()), !dbg !19088
  %7 = alloca %"class.std::__1::__map_value_compare.40"*, align 4
  call void @llvm.dbg.declare(metadata %"class.std::__1::__map_value_compare.40"** %7, metadata !19079, metadata !DIExpression()), !dbg !19090
  %8 = alloca %"struct.std::__1::__compressed_pair_elem.39"*, align 4
  call void @llvm.dbg.declare(metadata %"struct.std::__1::__compressed_pair_elem.39"** %8, metadata !19099, metadata !DIExpression()), !dbg !19101
  %9 = alloca %"class.std::__1::__map_value_compare.40"*, align 4
  call void @llvm.dbg.declare(metadata %"class.std::__1::__map_value_compare.40"** %9, metadata !19102, metadata !DIExpression()), !dbg !19103
  %10 = alloca i32*, align 4
  call void @llvm.dbg.declare(metadata i32** %10, metadata !18533, metadata !DIExpression()), !dbg !19104
  %11 = alloca %"class.std::__1::__compressed_pair.38"*, align 4
  call void @llvm.dbg.declare(metadata %"class.std::__1::__compressed_pair.38"** %11, metadata !19106, metadata !DIExpression()), !dbg !19108
  %12 = alloca i32*, align 4
  call void @llvm.dbg.declare(metadata i32** %12, metadata !19109, metadata !DIExpression()), !dbg !19110
  %13 = alloca %"class.std::__1::__map_value_compare.40"*, align 4
  call void @llvm.dbg.declare(metadata %"class.std::__1::__map_value_compare.40"** %13, metadata !19111, metadata !DIExpression()), !dbg !19112
  %14 = alloca %"class.std::__1::__tree_end_node"*, align 4
  call void @llvm.dbg.declare(metadata %"class.std::__1::__tree_end_node"** %14, metadata !18598, metadata !DIExpression()), !dbg !19113
  %15 = alloca %"class.std::__1::__tree_end_node"*, align 4
  call void @llvm.dbg.declare(metadata %"class.std::__1::__tree_end_node"** %15, metadata !18625, metadata !DIExpression()), !dbg !19119
  %16 = alloca %"struct.std::__1::__compressed_pair_elem"*, align 4
  call void @llvm.dbg.declare(metadata %"struct.std::__1::__compressed_pair_elem"** %16, metadata !18627, metadata !DIExpression()), !dbg !19120
  %17 = alloca %"class.std::__1::__compressed_pair.34"*, align 4
  call void @llvm.dbg.declare(metadata %"class.std::__1::__compressed_pair.34"** %17, metadata !19124, metadata !DIExpression()), !dbg !19126
  %18 = alloca %"class.std::__1::__tree.33"*, align 4
  call void @llvm.dbg.declare(metadata %"class.std::__1::__tree.33"** %18, metadata !19127, metadata !DIExpression()), !dbg !19129
  %19 = alloca %"class.std::__1::__tree.33"*, align 4
  call void @llvm.dbg.declare(metadata %"class.std::__1::__tree.33"** %19, metadata !19130, metadata !DIExpression()), !dbg !19132
  %20 = alloca %"class.std::__1::allocator.36"*, align 4
  call void @llvm.dbg.declare(metadata %"class.std::__1::allocator.36"** %20, metadata !19134, metadata !DIExpression()), !dbg !19137
  %21 = alloca %"struct.std::__1::__compressed_pair_elem.35"*, align 4
  call void @llvm.dbg.declare(metadata %"struct.std::__1::__compressed_pair_elem.35"** %21, metadata !19146, metadata !DIExpression()), !dbg !19148
  %22 = alloca %"class.std::__1::__tree_end_node"*, align 4
  call void @llvm.dbg.declare(metadata %"class.std::__1::__tree_end_node"** %22, metadata !18661, metadata !DIExpression()), !dbg !19149
  %23 = alloca %"struct.std::__1::__compressed_pair_elem"*, align 4
  call void @llvm.dbg.declare(metadata %"struct.std::__1::__compressed_pair_elem"** %23, metadata !18667, metadata !DIExpression()), !dbg !19152
  %24 = alloca %"class.std::__1::__compressed_pair.34"*, align 4
  call void @llvm.dbg.declare(metadata %"class.std::__1::__compressed_pair.34"** %24, metadata !19153, metadata !DIExpression()), !dbg !19154
  %25 = alloca %"class.std::__1::__tree.33"*, align 4
  %26 = alloca %"class.std::__1::__map_value_compare.40"*, align 4
  %27 = alloca i32, align 4
  store %"class.std::__1::__tree.33"* %0, %"class.std::__1::__tree.33"** %25, align 4
  call void @llvm.dbg.declare(metadata %"class.std::__1::__tree.33"** %25, metadata !19155, metadata !DIExpression()), !dbg !19156
  store %"class.std::__1::__map_value_compare.40"* %1, %"class.std::__1::__map_value_compare.40"** %26, align 4
  call void @llvm.dbg.declare(metadata %"class.std::__1::__map_value_compare.40"** %26, metadata !19157, metadata !DIExpression()), !dbg !19158
  %28 = load %"class.std::__1::__tree.33"*, %"class.std::__1::__tree.33"** %25, align 4
  %29 = getelementptr inbounds %"class.std::__1::__tree.33", %"class.std::__1::__tree.33"* %28, i32 0, i32 1, !dbg !19159
  store %"class.std::__1::__compressed_pair.34"* %29, %"class.std::__1::__compressed_pair.34"** %24, align 4
  %30 = load %"class.std::__1::__compressed_pair.34"*, %"class.std::__1::__compressed_pair.34"** %24, align 4
  %31 = bitcast %"class.std::__1::__compressed_pair.34"* %30 to %"struct.std::__1::__compressed_pair_elem"*, !dbg !19160
  store %"struct.std::__1::__compressed_pair_elem"* %31, %"struct.std::__1::__compressed_pair_elem"** %23, align 4
  %32 = load %"struct.std::__1::__compressed_pair_elem"*, %"struct.std::__1::__compressed_pair_elem"** %23, align 4
  %33 = getelementptr inbounds %"struct.std::__1::__compressed_pair_elem", %"struct.std::__1::__compressed_pair_elem"* %32, i32 0, i32 0, !dbg !19161
  store %"class.std::__1::__tree_end_node"* %33, %"class.std::__1::__tree_end_node"** %22, align 4
  %34 = load %"class.std::__1::__tree_end_node"*, %"class.std::__1::__tree_end_node"** %22, align 4
  %35 = getelementptr inbounds %"class.std::__1::__tree_end_node", %"class.std::__1::__tree_end_node"* %34, i32 0, i32 0, !dbg !19162
  store %"class.std::__1::__tree_node_base"* null, %"class.std::__1::__tree_node_base"** %35, align 4, !dbg !19162
  %36 = bitcast %"class.std::__1::__compressed_pair.34"* %30 to %"struct.std::__1::__compressed_pair_elem.35"*, !dbg !19160
  store %"struct.std::__1::__compressed_pair_elem.35"* %36, %"struct.std::__1::__compressed_pair_elem.35"** %21, align 4
  %37 = load %"struct.std::__1::__compressed_pair_elem.35"*, %"struct.std::__1::__compressed_pair_elem.35"** %21, align 4
  %38 = bitcast %"struct.std::__1::__compressed_pair_elem.35"* %37 to %"class.std::__1::allocator.36"*, !dbg !19163
  store %"class.std::__1::allocator.36"* %38, %"class.std::__1::allocator.36"** %20, align 4
  %39 = load %"class.std::__1::allocator.36"*, %"class.std::__1::allocator.36"** %20, align 4
  %40 = getelementptr inbounds %"class.std::__1::__tree.33", %"class.std::__1::__tree.33"* %28, i32 0, i32 2, !dbg !19164
  store i32 0, i32* %27, align 4, !dbg !19165
  %41 = load %"class.std::__1::__map_value_compare.40"*, %"class.std::__1::__map_value_compare.40"** %26, align 4, !dbg !19166
  store %"class.std::__1::__compressed_pair.38"* %40, %"class.std::__1::__compressed_pair.38"** %11, align 4
  store i32* %27, i32** %12, align 4
  store %"class.std::__1::__map_value_compare.40"* %41, %"class.std::__1::__map_value_compare.40"** %13, align 4
  %42 = load %"class.std::__1::__compressed_pair.38"*, %"class.std::__1::__compressed_pair.38"** %11, align 4
  %43 = bitcast %"class.std::__1::__compressed_pair.38"* %42 to %"struct.std::__1::__compressed_pair_elem.3"*, !dbg !19167
  %44 = load i32*, i32** %12, align 4, !dbg !19168
  store i32* %44, i32** %10, align 4
  %45 = load i32*, i32** %10, align 4, !dbg !19169
  store %"struct.std::__1::__compressed_pair_elem.3"* %43, %"struct.std::__1::__compressed_pair_elem.3"** %4, align 4
  store i32* %45, i32** %5, align 4
  %46 = load %"struct.std::__1::__compressed_pair_elem.3"*, %"struct.std::__1::__compressed_pair_elem.3"** %4, align 4
  %47 = getelementptr inbounds %"struct.std::__1::__compressed_pair_elem.3", %"struct.std::__1::__compressed_pair_elem.3"* %46, i32 0, i32 0, !dbg !19170
  %48 = load i32*, i32** %5, align 4, !dbg !19171
  store i32* %48, i32** %3, align 4
  %49 = load i32*, i32** %3, align 4, !dbg !19172
  %50 = load i32, i32* %49, align 4, !dbg !19173
  store i32 %50, i32* %47, align 4, !dbg !19170
  %51 = bitcast %"class.std::__1::__compressed_pair.38"* %42 to %"struct.std::__1::__compressed_pair_elem.39"*, !dbg !19167
  %52 = load %"class.std::__1::__map_value_compare.40"*, %"class.std::__1::__map_value_compare.40"** %13, align 4, !dbg !19174
  store %"class.std::__1::__map_value_compare.40"* %52, %"class.std::__1::__map_value_compare.40"** %6, align 4
  %53 = load %"class.std::__1::__map_value_compare.40"*, %"class.std::__1::__map_value_compare.40"** %6, align 4, !dbg !19175
  store %"struct.std::__1::__compressed_pair_elem.39"* %51, %"struct.std::__1::__compressed_pair_elem.39"** %8, align 4
  store %"class.std::__1::__map_value_compare.40"* %53, %"class.std::__1::__map_value_compare.40"** %9, align 4
  %54 = load %"struct.std::__1::__compressed_pair_elem.39"*, %"struct.std::__1::__compressed_pair_elem.39"** %8, align 4
  %55 = bitcast %"struct.std::__1::__compressed_pair_elem.39"* %54 to %"class.std::__1::__map_value_compare.40"*, !dbg !19176
  %56 = load %"class.std::__1::__map_value_compare.40"*, %"class.std::__1::__map_value_compare.40"** %9, align 4, !dbg !19177
  store %"class.std::__1::__map_value_compare.40"* %56, %"class.std::__1::__map_value_compare.40"** %7, align 4
  %57 = load %"class.std::__1::__map_value_compare.40"*, %"class.std::__1::__map_value_compare.40"** %7, align 4, !dbg !19178
  store %"class.std::__1::__tree.33"* %28, %"class.std::__1::__tree.33"** %18, align 4
  %58 = load %"class.std::__1::__tree.33"*, %"class.std::__1::__tree.33"** %18, align 4
  %59 = getelementptr inbounds %"class.std::__1::__tree.33", %"class.std::__1::__tree.33"* %58, i32 0, i32 1, !dbg !19179
  store %"class.std::__1::__compressed_pair.34"* %59, %"class.std::__1::__compressed_pair.34"** %17, align 4
  %60 = load %"class.std::__1::__compressed_pair.34"*, %"class.std::__1::__compressed_pair.34"** %17, align 4
  %61 = bitcast %"class.std::__1::__compressed_pair.34"* %60 to %"struct.std::__1::__compressed_pair_elem"*, !dbg !19180
  store %"struct.std::__1::__compressed_pair_elem"* %61, %"struct.std::__1::__compressed_pair_elem"** %16, align 4
  %62 = load %"struct.std::__1::__compressed_pair_elem"*, %"struct.std::__1::__compressed_pair_elem"** %16, align 4
  %63 = getelementptr inbounds %"struct.std::__1::__compressed_pair_elem", %"struct.std::__1::__compressed_pair_elem"* %62, i32 0, i32 0, !dbg !19181
  store %"class.std::__1::__tree_end_node"* %63, %"class.std::__1::__tree_end_node"** %15, align 4
  %64 = load %"class.std::__1::__tree_end_node"*, %"class.std::__1::__tree_end_node"** %15, align 4, !dbg !19182
  store %"class.std::__1::__tree_end_node"* %64, %"class.std::__1::__tree_end_node"** %14, align 4
  %65 = load %"class.std::__1::__tree_end_node"*, %"class.std::__1::__tree_end_node"** %14, align 4, !dbg !19183
  store %"class.std::__1::__tree.33"* %28, %"class.std::__1::__tree.33"** %19, align 4
  %66 = load %"class.std::__1::__tree.33"*, %"class.std::__1::__tree.33"** %19, align 4
  %67 = getelementptr inbounds %"class.std::__1::__tree.33", %"class.std::__1::__tree.33"* %66, i32 0, i32 0, !dbg !19184
  store %"class.std::__1::__tree_end_node"* %65, %"class.std::__1::__tree_end_node"** %67, align 4, !dbg !19185
  ret %"class.std::__1::__tree.33"* %28, !dbg !19186
}

; Function Attrs: noinline nounwind optnone sspstrong uwtable
define linkonce_odr %"class.std::__1::__tree.42"* @_ZNSt3__16__treeINS_12__value_typeIN7android8String16ENS_6vectorIbNS_9allocatorIbEEEEEENS_19__map_value_compareIS3_S8_NS_4lessIS3_EELb1EEENS5_IS8_EEEC2ERKSC_(%"class.std::__1::__tree.42"* returned, %"class.std::__1::__map_value_compare.49"* dereferenceable(1)) unnamed_addr #0 comdat align 2 !dbg !19187 {
  %3 = alloca i32*, align 4
  call void @llvm.dbg.declare(metadata i32** %3, metadata !18533, metadata !DIExpression()), !dbg !19188
  %4 = alloca %"struct.std::__1::__compressed_pair_elem.3"*, align 4
  call void @llvm.dbg.declare(metadata %"struct.std::__1::__compressed_pair_elem.3"** %4, metadata !18559, metadata !DIExpression()), !dbg !19198
  %5 = alloca i32*, align 4
  call void @llvm.dbg.declare(metadata i32** %5, metadata !18562, metadata !DIExpression()), !dbg !19199
  %6 = alloca %"class.std::__1::__map_value_compare.49"*, align 4
  call void @llvm.dbg.declare(metadata %"class.std::__1::__map_value_compare.49"** %6, metadata !19200, metadata !DIExpression()), !dbg !19209
  %7 = alloca %"class.std::__1::__map_value_compare.49"*, align 4
  call void @llvm.dbg.declare(metadata %"class.std::__1::__map_value_compare.49"** %7, metadata !19200, metadata !DIExpression()), !dbg !19211
  %8 = alloca %"struct.std::__1::__compressed_pair_elem.48"*, align 4
  call void @llvm.dbg.declare(metadata %"struct.std::__1::__compressed_pair_elem.48"** %8, metadata !19220, metadata !DIExpression()), !dbg !19222
  %9 = alloca %"class.std::__1::__map_value_compare.49"*, align 4
  call void @llvm.dbg.declare(metadata %"class.std::__1::__map_value_compare.49"** %9, metadata !19223, metadata !DIExpression()), !dbg !19224
  %10 = alloca i32*, align 4
  call void @llvm.dbg.declare(metadata i32** %10, metadata !18533, metadata !DIExpression()), !dbg !19225
  %11 = alloca %"class.std::__1::__compressed_pair.47"*, align 4
  call void @llvm.dbg.declare(metadata %"class.std::__1::__compressed_pair.47"** %11, metadata !19227, metadata !DIExpression()), !dbg !19229
  %12 = alloca i32*, align 4
  call void @llvm.dbg.declare(metadata i32** %12, metadata !19230, metadata !DIExpression()), !dbg !19231
  %13 = alloca %"class.std::__1::__map_value_compare.49"*, align 4
  call void @llvm.dbg.declare(metadata %"class.std::__1::__map_value_compare.49"** %13, metadata !19232, metadata !DIExpression()), !dbg !19233
  %14 = alloca %"class.std::__1::__tree_end_node"*, align 4
  call void @llvm.dbg.declare(metadata %"class.std::__1::__tree_end_node"** %14, metadata !18598, metadata !DIExpression()), !dbg !19234
  %15 = alloca %"class.std::__1::__tree_end_node"*, align 4
  call void @llvm.dbg.declare(metadata %"class.std::__1::__tree_end_node"** %15, metadata !18625, metadata !DIExpression()), !dbg !19240
  %16 = alloca %"struct.std::__1::__compressed_pair_elem"*, align 4
  call void @llvm.dbg.declare(metadata %"struct.std::__1::__compressed_pair_elem"** %16, metadata !18627, metadata !DIExpression()), !dbg !19241
  %17 = alloca %"class.std::__1::__compressed_pair.43"*, align 4
  call void @llvm.dbg.declare(metadata %"class.std::__1::__compressed_pair.43"** %17, metadata !19245, metadata !DIExpression()), !dbg !19247
  %18 = alloca %"class.std::__1::__tree.42"*, align 4
  call void @llvm.dbg.declare(metadata %"class.std::__1::__tree.42"** %18, metadata !19248, metadata !DIExpression()), !dbg !19250
  %19 = alloca %"class.std::__1::__tree.42"*, align 4
  call void @llvm.dbg.declare(metadata %"class.std::__1::__tree.42"** %19, metadata !19251, metadata !DIExpression()), !dbg !19253
  %20 = alloca %"class.std::__1::allocator.45"*, align 4
  call void @llvm.dbg.declare(metadata %"class.std::__1::allocator.45"** %20, metadata !19255, metadata !DIExpression()), !dbg !19258
  %21 = alloca %"struct.std::__1::__compressed_pair_elem.44"*, align 4
  call void @llvm.dbg.declare(metadata %"struct.std::__1::__compressed_pair_elem.44"** %21, metadata !19267, metadata !DIExpression()), !dbg !19269
  %22 = alloca %"class.std::__1::__tree_end_node"*, align 4
  call void @llvm.dbg.declare(metadata %"class.std::__1::__tree_end_node"** %22, metadata !18661, metadata !DIExpression()), !dbg !19270
  %23 = alloca %"struct.std::__1::__compressed_pair_elem"*, align 4
  call void @llvm.dbg.declare(metadata %"struct.std::__1::__compressed_pair_elem"** %23, metadata !18667, metadata !DIExpression()), !dbg !19273
  %24 = alloca %"class.std::__1::__compressed_pair.43"*, align 4
  call void @llvm.dbg.declare(metadata %"class.std::__1::__compressed_pair.43"** %24, metadata !19274, metadata !DIExpression()), !dbg !19275
  %25 = alloca %"class.std::__1::__tree.42"*, align 4
  %26 = alloca %"class.std::__1::__map_value_compare.49"*, align 4
  %27 = alloca i32, align 4
  store %"class.std::__1::__tree.42"* %0, %"class.std::__1::__tree.42"** %25, align 4
  call void @llvm.dbg.declare(metadata %"class.std::__1::__tree.42"** %25, metadata !19276, metadata !DIExpression()), !dbg !19277
  store %"class.std::__1::__map_value_compare.49"* %1, %"class.std::__1::__map_value_compare.49"** %26, align 4
  call void @llvm.dbg.declare(metadata %"class.std::__1::__map_value_compare.49"** %26, metadata !19278, metadata !DIExpression()), !dbg !19279
  %28 = load %"class.std::__1::__tree.42"*, %"class.std::__1::__tree.42"** %25, align 4
  %29 = getelementptr inbounds %"class.std::__1::__tree.42", %"class.std::__1::__tree.42"* %28, i32 0, i32 1, !dbg !19280
  store %"class.std::__1::__compressed_pair.43"* %29, %"class.std::__1::__compressed_pair.43"** %24, align 4
  %30 = load %"class.std::__1::__compressed_pair.43"*, %"class.std::__1::__compressed_pair.43"** %24, align 4
  %31 = bitcast %"class.std::__1::__compressed_pair.43"* %30 to %"struct.std::__1::__compressed_pair_elem"*, !dbg !19281
  store %"struct.std::__1::__compressed_pair_elem"* %31, %"struct.std::__1::__compressed_pair_elem"** %23, align 4
  %32 = load %"struct.std::__1::__compressed_pair_elem"*, %"struct.std::__1::__compressed_pair_elem"** %23, align 4
  %33 = getelementptr inbounds %"struct.std::__1::__compressed_pair_elem", %"struct.std::__1::__compressed_pair_elem"* %32, i32 0, i32 0, !dbg !19282
  store %"class.std::__1::__tree_end_node"* %33, %"class.std::__1::__tree_end_node"** %22, align 4
  %34 = load %"class.std::__1::__tree_end_node"*, %"class.std::__1::__tree_end_node"** %22, align 4
  %35 = getelementptr inbounds %"class.std::__1::__tree_end_node", %"class.std::__1::__tree_end_node"* %34, i32 0, i32 0, !dbg !19283
  store %"class.std::__1::__tree_node_base"* null, %"class.std::__1::__tree_node_base"** %35, align 4, !dbg !19283
  %36 = bitcast %"class.std::__1::__compressed_pair.43"* %30 to %"struct.std::__1::__compressed_pair_elem.44"*, !dbg !19281
  store %"struct.std::__1::__compressed_pair_elem.44"* %36, %"struct.std::__1::__compressed_pair_elem.44"** %21, align 4
  %37 = load %"struct.std::__1::__compressed_pair_elem.44"*, %"struct.std::__1::__compressed_pair_elem.44"** %21, align 4
  %38 = bitcast %"struct.std::__1::__compressed_pair_elem.44"* %37 to %"class.std::__1::allocator.45"*, !dbg !19284
  store %"class.std::__1::allocator.45"* %38, %"class.std::__1::allocator.45"** %20, align 4
  %39 = load %"class.std::__1::allocator.45"*, %"class.std::__1::allocator.45"** %20, align 4
  %40 = getelementptr inbounds %"class.std::__1::__tree.42", %"class.std::__1::__tree.42"* %28, i32 0, i32 2, !dbg !19285
  store i32 0, i32* %27, align 4, !dbg !19286
  %41 = load %"class.std::__1::__map_value_compare.49"*, %"class.std::__1::__map_value_compare.49"** %26, align 4, !dbg !19287
  store %"class.std::__1::__compressed_pair.47"* %40, %"class.std::__1::__compressed_pair.47"** %11, align 4
  store i32* %27, i32** %12, align 4
  store %"class.std::__1::__map_value_compare.49"* %41, %"class.std::__1::__map_value_compare.49"** %13, align 4
  %42 = load %"class.std::__1::__compressed_pair.47"*, %"class.std::__1::__compressed_pair.47"** %11, align 4
  %43 = bitcast %"class.std::__1::__compressed_pair.47"* %42 to %"struct.std::__1::__compressed_pair_elem.3"*, !dbg !19288
  %44 = load i32*, i32** %12, align 4, !dbg !19289
  store i32* %44, i32** %10, align 4
  %45 = load i32*, i32** %10, align 4, !dbg !19290
  store %"struct.std::__1::__compressed_pair_elem.3"* %43, %"struct.std::__1::__compressed_pair_elem.3"** %4, align 4
  store i32* %45, i32** %5, align 4
  %46 = load %"struct.std::__1::__compressed_pair_elem.3"*, %"struct.std::__1::__compressed_pair_elem.3"** %4, align 4
  %47 = getelementptr inbounds %"struct.std::__1::__compressed_pair_elem.3", %"struct.std::__1::__compressed_pair_elem.3"* %46, i32 0, i32 0, !dbg !19291
  %48 = load i32*, i32** %5, align 4, !dbg !19292
  store i32* %48, i32** %3, align 4
  %49 = load i32*, i32** %3, align 4, !dbg !19293
  %50 = load i32, i32* %49, align 4, !dbg !19294
  store i32 %50, i32* %47, align 4, !dbg !19291
  %51 = bitcast %"class.std::__1::__compressed_pair.47"* %42 to %"struct.std::__1::__compressed_pair_elem.48"*, !dbg !19288
  %52 = load %"class.std::__1::__map_value_compare.49"*, %"class.std::__1::__map_value_compare.49"** %13, align 4, !dbg !19295
  store %"class.std::__1::__map_value_compare.49"* %52, %"class.std::__1::__map_value_compare.49"** %6, align 4
  %53 = load %"class.std::__1::__map_value_compare.49"*, %"class.std::__1::__map_value_compare.49"** %6, align 4, !dbg !19296
  store %"struct.std::__1::__compressed_pair_elem.48"* %51, %"struct.std::__1::__compressed_pair_elem.48"** %8, align 4
  store %"class.std::__1::__map_value_compare.49"* %53, %"class.std::__1::__map_value_compare.49"** %9, align 4
  %54 = load %"struct.std::__1::__compressed_pair_elem.48"*, %"struct.std::__1::__compressed_pair_elem.48"** %8, align 4
  %55 = bitcast %"struct.std::__1::__compressed_pair_elem.48"* %54 to %"class.std::__1::__map_value_compare.49"*, !dbg !19297
  %56 = load %"class.std::__1::__map_value_compare.49"*, %"class.std::__1::__map_value_compare.49"** %9, align 4, !dbg !19298
  store %"class.std::__1::__map_value_compare.49"* %56, %"class.std::__1::__map_value_compare.49"** %7, align 4
  %57 = load %"class.std::__1::__map_value_compare.49"*, %"class.std::__1::__map_value_compare.49"** %7, align 4, !dbg !19299
  store %"class.std::__1::__tree.42"* %28, %"class.std::__1::__tree.42"** %18, align 4
  %58 = load %"class.std::__1::__tree.42"*, %"class.std::__1::__tree.42"** %18, align 4
  %59 = getelementptr inbounds %"class.std::__1::__tree.42", %"class.std::__1::__tree.42"* %58, i32 0, i32 1, !dbg !19300
  store %"class.std::__1::__compressed_pair.43"* %59, %"class.std::__1::__compressed_pair.43"** %17, align 4
  %60 = load %"class.std::__1::__compressed_pair.43"*, %"class.std::__1::__compressed_pair.43"** %17, align 4
  %61 = bitcast %"class.std::__1::__compressed_pair.43"* %60 to %"struct.std::__1::__compressed_pair_elem"*, !dbg !19301
  store %"struct.std::__1::__compressed_pair_elem"* %61, %"struct.std::__1::__compressed_pair_elem"** %16, align 4
  %62 = load %"struct.std::__1::__compressed_pair_elem"*, %"struct.std::__1::__compressed_pair_elem"** %16, align 4
  %63 = getelementptr inbounds %"struct.std::__1::__compressed_pair_elem", %"struct.std::__1::__compressed_pair_elem"* %62, i32 0, i32 0, !dbg !19302
  store %"class.std::__1::__tree_end_node"* %63, %"class.std::__1::__tree_end_node"** %15, align 4
  %64 = load %"class.std::__1::__tree_end_node"*, %"class.std::__1::__tree_end_node"** %15, align 4, !dbg !19303
  store %"class.std::__1::__tree_end_node"* %64, %"class.std::__1::__tree_end_node"** %14, align 4
  %65 = load %"class.std::__1::__tree_end_node"*, %"class.std::__1::__tree_end_node"** %14, align 4, !dbg !19304
  store %"class.std::__1::__tree.42"* %28, %"class.std::__1::__tree.42"** %19, align 4
  %66 = load %"class.std::__1::__tree.42"*, %"class.std::__1::__tree.42"** %19, align 4
  %67 = getelementptr inbounds %"class.std::__1::__tree.42", %"class.std::__1::__tree.42"* %66, i32 0, i32 0, !dbg !19305
  store %"class.std::__1::__tree_end_node"* %65, %"class.std::__1::__tree_end_node"** %67, align 4, !dbg !19306
  ret %"class.std::__1::__tree.42"* %28, !dbg !19307
}

; Function Attrs: noinline nounwind optnone sspstrong uwtable
define linkonce_odr %"class.std::__1::__tree.51"* @_ZNSt3__16__treeINS_12__value_typeIN7android8String16ENS_6vectorIiNS_9allocatorIiEEEEEENS_19__map_value_compareIS3_S8_NS_4lessIS3_EELb1EEENS5_IS8_EEEC2ERKSC_(%"class.std::__1::__tree.51"* returned, %"class.std::__1::__map_value_compare.58"* dereferenceable(1)) unnamed_addr #0 comdat align 2 !dbg !19308 {
  %3 = alloca i32*, align 4
  call void @llvm.dbg.declare(metadata i32** %3, metadata !18533, metadata !DIExpression()), !dbg !19309
  %4 = alloca %"struct.std::__1::__compressed_pair_elem.3"*, align 4
